
TEDY_F0.elf:     file format elf32-littlearm

Sections:
Idx Name          Size      VMA       LMA       File off  Algn
  0 .isr_vector   000000c0  08000000  08000000  00010000  2**0
                  CONTENTS, ALLOC, LOAD, READONLY, DATA
  1 .text         0000341c  080000c0  080000c0  000100c0  2**2
                  CONTENTS, ALLOC, LOAD, READONLY, CODE
  2 .rodata       00000068  080034dc  080034dc  000134dc  2**2
                  CONTENTS, ALLOC, LOAD, READONLY, DATA
  3 .ARM.extab    00000000  08003544  08003544  00020004  2**0
                  CONTENTS
  4 .ARM          00000000  08003544  08003544  00020004  2**0
                  CONTENTS
  5 .preinit_array 00000000  08003544  08003544  00020004  2**0
                  CONTENTS, ALLOC, LOAD, DATA
  6 .init_array   00000004  08003544  08003544  00013544  2**2
                  CONTENTS, ALLOC, LOAD, DATA
  7 .fini_array   00000004  08003548  08003548  00013548  2**2
                  CONTENTS, ALLOC, LOAD, DATA
  8 .data         00000004  20000000  0800354c  00020000  2**2
                  CONTENTS, ALLOC, LOAD, DATA
  9 .bss          000005e0  20000004  08003550  00020004  2**2
                  ALLOC
 10 ._user_heap_stack 00000604  200005e4  08003550  000205e4  2**0
                  ALLOC
 11 .ARM.attributes 00000028  00000000  00000000  00020004  2**0
                  CONTENTS, READONLY
 12 .comment      0000007b  00000000  00000000  0002002c  2**0
                  CONTENTS, READONLY
 13 .debug_frame  000000e0  00000000  00000000  000200a8  2**2
                  CONTENTS, READONLY, DEBUGGING

Disassembly of section .text:

080000c0 <__do_global_dtors_aux>:
 80000c0:	b510      	push	{r4, lr}
 80000c2:	4c06      	ldr	r4, [pc, #24]	; (80000dc <__do_global_dtors_aux+0x1c>)
 80000c4:	7823      	ldrb	r3, [r4, #0]
 80000c6:	2b00      	cmp	r3, #0
 80000c8:	d107      	bne.n	80000da <__do_global_dtors_aux+0x1a>
 80000ca:	4b05      	ldr	r3, [pc, #20]	; (80000e0 <__do_global_dtors_aux+0x20>)
 80000cc:	2b00      	cmp	r3, #0
 80000ce:	d002      	beq.n	80000d6 <__do_global_dtors_aux+0x16>
 80000d0:	4804      	ldr	r0, [pc, #16]	; (80000e4 <__do_global_dtors_aux+0x24>)
 80000d2:	e000      	b.n	80000d6 <__do_global_dtors_aux+0x16>
 80000d4:	bf00      	nop
 80000d6:	2301      	movs	r3, #1
 80000d8:	7023      	strb	r3, [r4, #0]
 80000da:	bd10      	pop	{r4, pc}
 80000dc:	20000004 	.word	0x20000004
 80000e0:	00000000 	.word	0x00000000
 80000e4:	080034c4 	.word	0x080034c4

080000e8 <frame_dummy>:
 80000e8:	4b04      	ldr	r3, [pc, #16]	; (80000fc <frame_dummy+0x14>)
 80000ea:	b510      	push	{r4, lr}
 80000ec:	2b00      	cmp	r3, #0
 80000ee:	d003      	beq.n	80000f8 <frame_dummy+0x10>
 80000f0:	4903      	ldr	r1, [pc, #12]	; (8000100 <frame_dummy+0x18>)
 80000f2:	4804      	ldr	r0, [pc, #16]	; (8000104 <frame_dummy+0x1c>)
 80000f4:	e000      	b.n	80000f8 <frame_dummy+0x10>
 80000f6:	bf00      	nop
 80000f8:	bd10      	pop	{r4, pc}
 80000fa:	46c0      	nop			; (mov r8, r8)
 80000fc:	00000000 	.word	0x00000000
 8000100:	20000008 	.word	0x20000008
 8000104:	080034c4 	.word	0x080034c4

08000108 <__udivsi3>:
 8000108:	2200      	movs	r2, #0
 800010a:	0843      	lsrs	r3, r0, #1
 800010c:	428b      	cmp	r3, r1
 800010e:	d374      	bcc.n	80001fa <__udivsi3+0xf2>
 8000110:	0903      	lsrs	r3, r0, #4
 8000112:	428b      	cmp	r3, r1
 8000114:	d35f      	bcc.n	80001d6 <__udivsi3+0xce>
 8000116:	0a03      	lsrs	r3, r0, #8
 8000118:	428b      	cmp	r3, r1
 800011a:	d344      	bcc.n	80001a6 <__udivsi3+0x9e>
 800011c:	0b03      	lsrs	r3, r0, #12
 800011e:	428b      	cmp	r3, r1
 8000120:	d328      	bcc.n	8000174 <__udivsi3+0x6c>
 8000122:	0c03      	lsrs	r3, r0, #16
 8000124:	428b      	cmp	r3, r1
 8000126:	d30d      	bcc.n	8000144 <__udivsi3+0x3c>
 8000128:	22ff      	movs	r2, #255	; 0xff
 800012a:	0209      	lsls	r1, r1, #8
 800012c:	ba12      	rev	r2, r2
 800012e:	0c03      	lsrs	r3, r0, #16
 8000130:	428b      	cmp	r3, r1
 8000132:	d302      	bcc.n	800013a <__udivsi3+0x32>
 8000134:	1212      	asrs	r2, r2, #8
 8000136:	0209      	lsls	r1, r1, #8
 8000138:	d065      	beq.n	8000206 <__udivsi3+0xfe>
 800013a:	0b03      	lsrs	r3, r0, #12
 800013c:	428b      	cmp	r3, r1
 800013e:	d319      	bcc.n	8000174 <__udivsi3+0x6c>
 8000140:	e000      	b.n	8000144 <__udivsi3+0x3c>
 8000142:	0a09      	lsrs	r1, r1, #8
 8000144:	0bc3      	lsrs	r3, r0, #15
 8000146:	428b      	cmp	r3, r1
 8000148:	d301      	bcc.n	800014e <__udivsi3+0x46>
 800014a:	03cb      	lsls	r3, r1, #15
 800014c:	1ac0      	subs	r0, r0, r3
 800014e:	4152      	adcs	r2, r2
 8000150:	0b83      	lsrs	r3, r0, #14
 8000152:	428b      	cmp	r3, r1
 8000154:	d301      	bcc.n	800015a <__udivsi3+0x52>
 8000156:	038b      	lsls	r3, r1, #14
 8000158:	1ac0      	subs	r0, r0, r3
 800015a:	4152      	adcs	r2, r2
 800015c:	0b43      	lsrs	r3, r0, #13
 800015e:	428b      	cmp	r3, r1
 8000160:	d301      	bcc.n	8000166 <__udivsi3+0x5e>
 8000162:	034b      	lsls	r3, r1, #13
 8000164:	1ac0      	subs	r0, r0, r3
 8000166:	4152      	adcs	r2, r2
 8000168:	0b03      	lsrs	r3, r0, #12
 800016a:	428b      	cmp	r3, r1
 800016c:	d301      	bcc.n	8000172 <__udivsi3+0x6a>
 800016e:	030b      	lsls	r3, r1, #12
 8000170:	1ac0      	subs	r0, r0, r3
 8000172:	4152      	adcs	r2, r2
 8000174:	0ac3      	lsrs	r3, r0, #11
 8000176:	428b      	cmp	r3, r1
 8000178:	d301      	bcc.n	800017e <__udivsi3+0x76>
 800017a:	02cb      	lsls	r3, r1, #11
 800017c:	1ac0      	subs	r0, r0, r3
 800017e:	4152      	adcs	r2, r2
 8000180:	0a83      	lsrs	r3, r0, #10
 8000182:	428b      	cmp	r3, r1
 8000184:	d301      	bcc.n	800018a <__udivsi3+0x82>
 8000186:	028b      	lsls	r3, r1, #10
 8000188:	1ac0      	subs	r0, r0, r3
 800018a:	4152      	adcs	r2, r2
 800018c:	0a43      	lsrs	r3, r0, #9
 800018e:	428b      	cmp	r3, r1
 8000190:	d301      	bcc.n	8000196 <__udivsi3+0x8e>
 8000192:	024b      	lsls	r3, r1, #9
 8000194:	1ac0      	subs	r0, r0, r3
 8000196:	4152      	adcs	r2, r2
 8000198:	0a03      	lsrs	r3, r0, #8
 800019a:	428b      	cmp	r3, r1
 800019c:	d301      	bcc.n	80001a2 <__udivsi3+0x9a>
 800019e:	020b      	lsls	r3, r1, #8
 80001a0:	1ac0      	subs	r0, r0, r3
 80001a2:	4152      	adcs	r2, r2
 80001a4:	d2cd      	bcs.n	8000142 <__udivsi3+0x3a>
 80001a6:	09c3      	lsrs	r3, r0, #7
 80001a8:	428b      	cmp	r3, r1
 80001aa:	d301      	bcc.n	80001b0 <__udivsi3+0xa8>
 80001ac:	01cb      	lsls	r3, r1, #7
 80001ae:	1ac0      	subs	r0, r0, r3
 80001b0:	4152      	adcs	r2, r2
 80001b2:	0983      	lsrs	r3, r0, #6
 80001b4:	428b      	cmp	r3, r1
 80001b6:	d301      	bcc.n	80001bc <__udivsi3+0xb4>
 80001b8:	018b      	lsls	r3, r1, #6
 80001ba:	1ac0      	subs	r0, r0, r3
 80001bc:	4152      	adcs	r2, r2
 80001be:	0943      	lsrs	r3, r0, #5
 80001c0:	428b      	cmp	r3, r1
 80001c2:	d301      	bcc.n	80001c8 <__udivsi3+0xc0>
 80001c4:	014b      	lsls	r3, r1, #5
 80001c6:	1ac0      	subs	r0, r0, r3
 80001c8:	4152      	adcs	r2, r2
 80001ca:	0903      	lsrs	r3, r0, #4
 80001cc:	428b      	cmp	r3, r1
 80001ce:	d301      	bcc.n	80001d4 <__udivsi3+0xcc>
 80001d0:	010b      	lsls	r3, r1, #4
 80001d2:	1ac0      	subs	r0, r0, r3
 80001d4:	4152      	adcs	r2, r2
 80001d6:	08c3      	lsrs	r3, r0, #3
 80001d8:	428b      	cmp	r3, r1
 80001da:	d301      	bcc.n	80001e0 <__udivsi3+0xd8>
 80001dc:	00cb      	lsls	r3, r1, #3
 80001de:	1ac0      	subs	r0, r0, r3
 80001e0:	4152      	adcs	r2, r2
 80001e2:	0883      	lsrs	r3, r0, #2
 80001e4:	428b      	cmp	r3, r1
 80001e6:	d301      	bcc.n	80001ec <__udivsi3+0xe4>
 80001e8:	008b      	lsls	r3, r1, #2
 80001ea:	1ac0      	subs	r0, r0, r3
 80001ec:	4152      	adcs	r2, r2
 80001ee:	0843      	lsrs	r3, r0, #1
 80001f0:	428b      	cmp	r3, r1
 80001f2:	d301      	bcc.n	80001f8 <__udivsi3+0xf0>
 80001f4:	004b      	lsls	r3, r1, #1
 80001f6:	1ac0      	subs	r0, r0, r3
 80001f8:	4152      	adcs	r2, r2
 80001fa:	1a41      	subs	r1, r0, r1
 80001fc:	d200      	bcs.n	8000200 <__udivsi3+0xf8>
 80001fe:	4601      	mov	r1, r0
 8000200:	4152      	adcs	r2, r2
 8000202:	4610      	mov	r0, r2
 8000204:	4770      	bx	lr
 8000206:	e7ff      	b.n	8000208 <__udivsi3+0x100>
 8000208:	b501      	push	{r0, lr}
 800020a:	2000      	movs	r0, #0
 800020c:	f000 f8f0 	bl	80003f0 <__aeabi_idiv0>
 8000210:	bd02      	pop	{r1, pc}
 8000212:	46c0      	nop			; (mov r8, r8)

08000214 <__aeabi_uidivmod>:
 8000214:	2900      	cmp	r1, #0
 8000216:	d0f7      	beq.n	8000208 <__udivsi3+0x100>
 8000218:	e776      	b.n	8000108 <__udivsi3>
 800021a:	4770      	bx	lr

0800021c <__divsi3>:
 800021c:	4603      	mov	r3, r0
 800021e:	430b      	orrs	r3, r1
 8000220:	d47f      	bmi.n	8000322 <__divsi3+0x106>
 8000222:	2200      	movs	r2, #0
 8000224:	0843      	lsrs	r3, r0, #1
 8000226:	428b      	cmp	r3, r1
 8000228:	d374      	bcc.n	8000314 <__divsi3+0xf8>
 800022a:	0903      	lsrs	r3, r0, #4
 800022c:	428b      	cmp	r3, r1
 800022e:	d35f      	bcc.n	80002f0 <__divsi3+0xd4>
 8000230:	0a03      	lsrs	r3, r0, #8
 8000232:	428b      	cmp	r3, r1
 8000234:	d344      	bcc.n	80002c0 <__divsi3+0xa4>
 8000236:	0b03      	lsrs	r3, r0, #12
 8000238:	428b      	cmp	r3, r1
 800023a:	d328      	bcc.n	800028e <__divsi3+0x72>
 800023c:	0c03      	lsrs	r3, r0, #16
 800023e:	428b      	cmp	r3, r1
 8000240:	d30d      	bcc.n	800025e <__divsi3+0x42>
 8000242:	22ff      	movs	r2, #255	; 0xff
 8000244:	0209      	lsls	r1, r1, #8
 8000246:	ba12      	rev	r2, r2
 8000248:	0c03      	lsrs	r3, r0, #16
 800024a:	428b      	cmp	r3, r1
 800024c:	d302      	bcc.n	8000254 <__divsi3+0x38>
 800024e:	1212      	asrs	r2, r2, #8
 8000250:	0209      	lsls	r1, r1, #8
 8000252:	d065      	beq.n	8000320 <__divsi3+0x104>
 8000254:	0b03      	lsrs	r3, r0, #12
 8000256:	428b      	cmp	r3, r1
 8000258:	d319      	bcc.n	800028e <__divsi3+0x72>
 800025a:	e000      	b.n	800025e <__divsi3+0x42>
 800025c:	0a09      	lsrs	r1, r1, #8
 800025e:	0bc3      	lsrs	r3, r0, #15
 8000260:	428b      	cmp	r3, r1
 8000262:	d301      	bcc.n	8000268 <__divsi3+0x4c>
 8000264:	03cb      	lsls	r3, r1, #15
 8000266:	1ac0      	subs	r0, r0, r3
 8000268:	4152      	adcs	r2, r2
 800026a:	0b83      	lsrs	r3, r0, #14
 800026c:	428b      	cmp	r3, r1
 800026e:	d301      	bcc.n	8000274 <__divsi3+0x58>
 8000270:	038b      	lsls	r3, r1, #14
 8000272:	1ac0      	subs	r0, r0, r3
 8000274:	4152      	adcs	r2, r2
 8000276:	0b43      	lsrs	r3, r0, #13
 8000278:	428b      	cmp	r3, r1
 800027a:	d301      	bcc.n	8000280 <__divsi3+0x64>
 800027c:	034b      	lsls	r3, r1, #13
 800027e:	1ac0      	subs	r0, r0, r3
 8000280:	4152      	adcs	r2, r2
 8000282:	0b03      	lsrs	r3, r0, #12
 8000284:	428b      	cmp	r3, r1
 8000286:	d301      	bcc.n	800028c <__divsi3+0x70>
 8000288:	030b      	lsls	r3, r1, #12
 800028a:	1ac0      	subs	r0, r0, r3
 800028c:	4152      	adcs	r2, r2
 800028e:	0ac3      	lsrs	r3, r0, #11
 8000290:	428b      	cmp	r3, r1
 8000292:	d301      	bcc.n	8000298 <__divsi3+0x7c>
 8000294:	02cb      	lsls	r3, r1, #11
 8000296:	1ac0      	subs	r0, r0, r3
 8000298:	4152      	adcs	r2, r2
 800029a:	0a83      	lsrs	r3, r0, #10
 800029c:	428b      	cmp	r3, r1
 800029e:	d301      	bcc.n	80002a4 <__divsi3+0x88>
 80002a0:	028b      	lsls	r3, r1, #10
 80002a2:	1ac0      	subs	r0, r0, r3
 80002a4:	4152      	adcs	r2, r2
 80002a6:	0a43      	lsrs	r3, r0, #9
 80002a8:	428b      	cmp	r3, r1
 80002aa:	d301      	bcc.n	80002b0 <__divsi3+0x94>
 80002ac:	024b      	lsls	r3, r1, #9
 80002ae:	1ac0      	subs	r0, r0, r3
 80002b0:	4152      	adcs	r2, r2
 80002b2:	0a03      	lsrs	r3, r0, #8
 80002b4:	428b      	cmp	r3, r1
 80002b6:	d301      	bcc.n	80002bc <__divsi3+0xa0>
 80002b8:	020b      	lsls	r3, r1, #8
 80002ba:	1ac0      	subs	r0, r0, r3
 80002bc:	4152      	adcs	r2, r2
 80002be:	d2cd      	bcs.n	800025c <__divsi3+0x40>
 80002c0:	09c3      	lsrs	r3, r0, #7
 80002c2:	428b      	cmp	r3, r1
 80002c4:	d301      	bcc.n	80002ca <__divsi3+0xae>
 80002c6:	01cb      	lsls	r3, r1, #7
 80002c8:	1ac0      	subs	r0, r0, r3
 80002ca:	4152      	adcs	r2, r2
 80002cc:	0983      	lsrs	r3, r0, #6
 80002ce:	428b      	cmp	r3, r1
 80002d0:	d301      	bcc.n	80002d6 <__divsi3+0xba>
 80002d2:	018b      	lsls	r3, r1, #6
 80002d4:	1ac0      	subs	r0, r0, r3
 80002d6:	4152      	adcs	r2, r2
 80002d8:	0943      	lsrs	r3, r0, #5
 80002da:	428b      	cmp	r3, r1
 80002dc:	d301      	bcc.n	80002e2 <__divsi3+0xc6>
 80002de:	014b      	lsls	r3, r1, #5
 80002e0:	1ac0      	subs	r0, r0, r3
 80002e2:	4152      	adcs	r2, r2
 80002e4:	0903      	lsrs	r3, r0, #4
 80002e6:	428b      	cmp	r3, r1
 80002e8:	d301      	bcc.n	80002ee <__divsi3+0xd2>
 80002ea:	010b      	lsls	r3, r1, #4
 80002ec:	1ac0      	subs	r0, r0, r3
 80002ee:	4152      	adcs	r2, r2
 80002f0:	08c3      	lsrs	r3, r0, #3
 80002f2:	428b      	cmp	r3, r1
 80002f4:	d301      	bcc.n	80002fa <__divsi3+0xde>
 80002f6:	00cb      	lsls	r3, r1, #3
 80002f8:	1ac0      	subs	r0, r0, r3
 80002fa:	4152      	adcs	r2, r2
 80002fc:	0883      	lsrs	r3, r0, #2
 80002fe:	428b      	cmp	r3, r1
 8000300:	d301      	bcc.n	8000306 <__divsi3+0xea>
 8000302:	008b      	lsls	r3, r1, #2
 8000304:	1ac0      	subs	r0, r0, r3
 8000306:	4152      	adcs	r2, r2
 8000308:	0843      	lsrs	r3, r0, #1
 800030a:	428b      	cmp	r3, r1
 800030c:	d301      	bcc.n	8000312 <__divsi3+0xf6>
 800030e:	004b      	lsls	r3, r1, #1
 8000310:	1ac0      	subs	r0, r0, r3
 8000312:	4152      	adcs	r2, r2
 8000314:	1a41      	subs	r1, r0, r1
 8000316:	d200      	bcs.n	800031a <__divsi3+0xfe>
 8000318:	4601      	mov	r1, r0
 800031a:	4152      	adcs	r2, r2
 800031c:	4610      	mov	r0, r2
 800031e:	4770      	bx	lr
 8000320:	e05d      	b.n	80003de <__divsi3+0x1c2>
 8000322:	0fca      	lsrs	r2, r1, #31
 8000324:	d000      	beq.n	8000328 <__divsi3+0x10c>
 8000326:	4249      	negs	r1, r1
 8000328:	1003      	asrs	r3, r0, #32
 800032a:	d300      	bcc.n	800032e <__divsi3+0x112>
 800032c:	4240      	negs	r0, r0
 800032e:	4053      	eors	r3, r2
 8000330:	2200      	movs	r2, #0
 8000332:	469c      	mov	ip, r3
 8000334:	0903      	lsrs	r3, r0, #4
 8000336:	428b      	cmp	r3, r1
 8000338:	d32d      	bcc.n	8000396 <__divsi3+0x17a>
 800033a:	0a03      	lsrs	r3, r0, #8
 800033c:	428b      	cmp	r3, r1
 800033e:	d312      	bcc.n	8000366 <__divsi3+0x14a>
 8000340:	22fc      	movs	r2, #252	; 0xfc
 8000342:	0189      	lsls	r1, r1, #6
 8000344:	ba12      	rev	r2, r2
 8000346:	0a03      	lsrs	r3, r0, #8
 8000348:	428b      	cmp	r3, r1
 800034a:	d30c      	bcc.n	8000366 <__divsi3+0x14a>
 800034c:	0189      	lsls	r1, r1, #6
 800034e:	1192      	asrs	r2, r2, #6
 8000350:	428b      	cmp	r3, r1
 8000352:	d308      	bcc.n	8000366 <__divsi3+0x14a>
 8000354:	0189      	lsls	r1, r1, #6
 8000356:	1192      	asrs	r2, r2, #6
 8000358:	428b      	cmp	r3, r1
 800035a:	d304      	bcc.n	8000366 <__divsi3+0x14a>
 800035c:	0189      	lsls	r1, r1, #6
 800035e:	d03a      	beq.n	80003d6 <__divsi3+0x1ba>
 8000360:	1192      	asrs	r2, r2, #6
 8000362:	e000      	b.n	8000366 <__divsi3+0x14a>
 8000364:	0989      	lsrs	r1, r1, #6
 8000366:	09c3      	lsrs	r3, r0, #7
 8000368:	428b      	cmp	r3, r1
 800036a:	d301      	bcc.n	8000370 <__divsi3+0x154>
 800036c:	01cb      	lsls	r3, r1, #7
 800036e:	1ac0      	subs	r0, r0, r3
 8000370:	4152      	adcs	r2, r2
 8000372:	0983      	lsrs	r3, r0, #6
 8000374:	428b      	cmp	r3, r1
 8000376:	d301      	bcc.n	800037c <__divsi3+0x160>
 8000378:	018b      	lsls	r3, r1, #6
 800037a:	1ac0      	subs	r0, r0, r3
 800037c:	4152      	adcs	r2, r2
 800037e:	0943      	lsrs	r3, r0, #5
 8000380:	428b      	cmp	r3, r1
 8000382:	d301      	bcc.n	8000388 <__divsi3+0x16c>
 8000384:	014b      	lsls	r3, r1, #5
 8000386:	1ac0      	subs	r0, r0, r3
 8000388:	4152      	adcs	r2, r2
 800038a:	0903      	lsrs	r3, r0, #4
 800038c:	428b      	cmp	r3, r1
 800038e:	d301      	bcc.n	8000394 <__divsi3+0x178>
 8000390:	010b      	lsls	r3, r1, #4
 8000392:	1ac0      	subs	r0, r0, r3
 8000394:	4152      	adcs	r2, r2
 8000396:	08c3      	lsrs	r3, r0, #3
 8000398:	428b      	cmp	r3, r1
 800039a:	d301      	bcc.n	80003a0 <__divsi3+0x184>
 800039c:	00cb      	lsls	r3, r1, #3
 800039e:	1ac0      	subs	r0, r0, r3
 80003a0:	4152      	adcs	r2, r2
 80003a2:	0883      	lsrs	r3, r0, #2
 80003a4:	428b      	cmp	r3, r1
 80003a6:	d301      	bcc.n	80003ac <__divsi3+0x190>
 80003a8:	008b      	lsls	r3, r1, #2
 80003aa:	1ac0      	subs	r0, r0, r3
 80003ac:	4152      	adcs	r2, r2
 80003ae:	d2d9      	bcs.n	8000364 <__divsi3+0x148>
 80003b0:	0843      	lsrs	r3, r0, #1
 80003b2:	428b      	cmp	r3, r1
 80003b4:	d301      	bcc.n	80003ba <__divsi3+0x19e>
 80003b6:	004b      	lsls	r3, r1, #1
 80003b8:	1ac0      	subs	r0, r0, r3
 80003ba:	4152      	adcs	r2, r2
 80003bc:	1a41      	subs	r1, r0, r1
 80003be:	d200      	bcs.n	80003c2 <__divsi3+0x1a6>
 80003c0:	4601      	mov	r1, r0
 80003c2:	4663      	mov	r3, ip
 80003c4:	4152      	adcs	r2, r2
 80003c6:	105b      	asrs	r3, r3, #1
 80003c8:	4610      	mov	r0, r2
 80003ca:	d301      	bcc.n	80003d0 <__divsi3+0x1b4>
 80003cc:	4240      	negs	r0, r0
 80003ce:	2b00      	cmp	r3, #0
 80003d0:	d500      	bpl.n	80003d4 <__divsi3+0x1b8>
 80003d2:	4249      	negs	r1, r1
 80003d4:	4770      	bx	lr
 80003d6:	4663      	mov	r3, ip
 80003d8:	105b      	asrs	r3, r3, #1
 80003da:	d300      	bcc.n	80003de <__divsi3+0x1c2>
 80003dc:	4240      	negs	r0, r0
 80003de:	b501      	push	{r0, lr}
 80003e0:	2000      	movs	r0, #0
 80003e2:	f000 f805 	bl	80003f0 <__aeabi_idiv0>
 80003e6:	bd02      	pop	{r1, pc}

080003e8 <__aeabi_idivmod>:
 80003e8:	2900      	cmp	r1, #0
 80003ea:	d0f8      	beq.n	80003de <__divsi3+0x1c2>
 80003ec:	e716      	b.n	800021c <__divsi3>
 80003ee:	4770      	bx	lr

080003f0 <__aeabi_idiv0>:
 80003f0:	4770      	bx	lr
 80003f2:	46c0      	nop			; (mov r8, r8)

080003f4 <HAL_InitTick>:
 80003f4:	b510      	push	{r4, lr}
 80003f6:	0004      	movs	r4, r0
 80003f8:	f000 fcfc 	bl	8000df4 <HAL_RCC_GetHCLKFreq>
 80003fc:	21fa      	movs	r1, #250	; 0xfa
 80003fe:	0089      	lsls	r1, r1, #2
 8000400:	f7ff fe82 	bl	8000108 <__udivsi3>
 8000404:	f000 f878 	bl	80004f8 <HAL_SYSTICK_Config>
 8000408:	2001      	movs	r0, #1
 800040a:	2200      	movs	r2, #0
 800040c:	0021      	movs	r1, r4
 800040e:	4240      	negs	r0, r0
 8000410:	f000 f832 	bl	8000478 <HAL_NVIC_SetPriority>
 8000414:	2000      	movs	r0, #0
 8000416:	bd10      	pop	{r4, pc}

08000418 <HAL_Init>:
 8000418:	2110      	movs	r1, #16
 800041a:	4a06      	ldr	r2, [pc, #24]	; (8000434 <HAL_Init+0x1c>)
 800041c:	b510      	push	{r4, lr}
 800041e:	6813      	ldr	r3, [r2, #0]
 8000420:	2000      	movs	r0, #0
 8000422:	430b      	orrs	r3, r1
 8000424:	6013      	str	r3, [r2, #0]
 8000426:	f7ff ffe5 	bl	80003f4 <HAL_InitTick>
 800042a:	f002 fe53 	bl	80030d4 <HAL_MspInit>
 800042e:	2000      	movs	r0, #0
 8000430:	bd10      	pop	{r4, pc}
 8000432:	46c0      	nop			; (mov r8, r8)
 8000434:	40022000 	.word	0x40022000

08000438 <HAL_IncTick>:
 8000438:	4a02      	ldr	r2, [pc, #8]	; (8000444 <HAL_IncTick+0xc>)
 800043a:	6813      	ldr	r3, [r2, #0]
 800043c:	3301      	adds	r3, #1
 800043e:	6013      	str	r3, [r2, #0]
 8000440:	4770      	bx	lr
 8000442:	46c0      	nop			; (mov r8, r8)
 8000444:	20000024 	.word	0x20000024

08000448 <HAL_GetTick>:
 8000448:	4b01      	ldr	r3, [pc, #4]	; (8000450 <HAL_GetTick+0x8>)
 800044a:	6818      	ldr	r0, [r3, #0]
 800044c:	4770      	bx	lr
 800044e:	46c0      	nop			; (mov r8, r8)
 8000450:	20000024 	.word	0x20000024

08000454 <HAL_Delay>:
 8000454:	b530      	push	{r4, r5, lr}
 8000456:	b083      	sub	sp, #12
 8000458:	9001      	str	r0, [sp, #4]
 800045a:	f7ff fff5 	bl	8000448 <HAL_GetTick>
 800045e:	9c01      	ldr	r4, [sp, #4]
 8000460:	0005      	movs	r5, r0
 8000462:	1c63      	adds	r3, r4, #1
 8000464:	1e5a      	subs	r2, r3, #1
 8000466:	4193      	sbcs	r3, r2
 8000468:	18e4      	adds	r4, r4, r3
 800046a:	f7ff ffed 	bl	8000448 <HAL_GetTick>
 800046e:	1b40      	subs	r0, r0, r5
 8000470:	42a0      	cmp	r0, r4
 8000472:	d3fa      	bcc.n	800046a <HAL_Delay+0x16>
 8000474:	b003      	add	sp, #12
 8000476:	bd30      	pop	{r4, r5, pc}

08000478 <HAL_NVIC_SetPriority>:
 8000478:	22ff      	movs	r2, #255	; 0xff
 800047a:	2303      	movs	r3, #3
 800047c:	b530      	push	{r4, r5, lr}
 800047e:	0014      	movs	r4, r2
 8000480:	b2c5      	uxtb	r5, r0
 8000482:	402b      	ands	r3, r5
 8000484:	00db      	lsls	r3, r3, #3
 8000486:	409c      	lsls	r4, r3
 8000488:	0189      	lsls	r1, r1, #6
 800048a:	400a      	ands	r2, r1
 800048c:	43e4      	mvns	r4, r4
 800048e:	409a      	lsls	r2, r3
 8000490:	2800      	cmp	r0, #0
 8000492:	db0b      	blt.n	80004ac <HAL_NVIC_SetPriority+0x34>
 8000494:	4b0c      	ldr	r3, [pc, #48]	; (80004c8 <HAL_NVIC_SetPriority+0x50>)
 8000496:	0880      	lsrs	r0, r0, #2
 8000498:	469c      	mov	ip, r3
 800049a:	23c0      	movs	r3, #192	; 0xc0
 800049c:	0080      	lsls	r0, r0, #2
 800049e:	4460      	add	r0, ip
 80004a0:	009b      	lsls	r3, r3, #2
 80004a2:	58c1      	ldr	r1, [r0, r3]
 80004a4:	400c      	ands	r4, r1
 80004a6:	4322      	orrs	r2, r4
 80004a8:	50c2      	str	r2, [r0, r3]
 80004aa:	bd30      	pop	{r4, r5, pc}
 80004ac:	230f      	movs	r3, #15
 80004ae:	4907      	ldr	r1, [pc, #28]	; (80004cc <HAL_NVIC_SetPriority+0x54>)
 80004b0:	402b      	ands	r3, r5
 80004b2:	468c      	mov	ip, r1
 80004b4:	3b08      	subs	r3, #8
 80004b6:	089b      	lsrs	r3, r3, #2
 80004b8:	009b      	lsls	r3, r3, #2
 80004ba:	4463      	add	r3, ip
 80004bc:	69d9      	ldr	r1, [r3, #28]
 80004be:	400c      	ands	r4, r1
 80004c0:	4322      	orrs	r2, r4
 80004c2:	61da      	str	r2, [r3, #28]
 80004c4:	e7f1      	b.n	80004aa <HAL_NVIC_SetPriority+0x32>
 80004c6:	46c0      	nop			; (mov r8, r8)
 80004c8:	e000e100 	.word	0xe000e100
 80004cc:	e000ed00 	.word	0xe000ed00

080004d0 <HAL_NVIC_EnableIRQ>:
 80004d0:	231f      	movs	r3, #31
 80004d2:	4018      	ands	r0, r3
 80004d4:	3b1e      	subs	r3, #30
 80004d6:	4083      	lsls	r3, r0
 80004d8:	4a01      	ldr	r2, [pc, #4]	; (80004e0 <HAL_NVIC_EnableIRQ+0x10>)
 80004da:	6013      	str	r3, [r2, #0]
 80004dc:	4770      	bx	lr
 80004de:	46c0      	nop			; (mov r8, r8)
 80004e0:	e000e100 	.word	0xe000e100

080004e4 <HAL_NVIC_DisableIRQ>:
 80004e4:	231f      	movs	r3, #31
 80004e6:	4018      	ands	r0, r3
 80004e8:	3b1e      	subs	r3, #30
 80004ea:	4083      	lsls	r3, r0
 80004ec:	2280      	movs	r2, #128	; 0x80
 80004ee:	4901      	ldr	r1, [pc, #4]	; (80004f4 <HAL_NVIC_DisableIRQ+0x10>)
 80004f0:	508b      	str	r3, [r1, r2]
 80004f2:	4770      	bx	lr
 80004f4:	e000e100 	.word	0xe000e100

080004f8 <HAL_SYSTICK_Config>:
 80004f8:	4a0a      	ldr	r2, [pc, #40]	; (8000524 <HAL_SYSTICK_Config+0x2c>)
 80004fa:	1e43      	subs	r3, r0, #1
 80004fc:	2001      	movs	r0, #1
 80004fe:	4293      	cmp	r3, r2
 8000500:	d80e      	bhi.n	8000520 <HAL_SYSTICK_Config+0x28>
 8000502:	21c0      	movs	r1, #192	; 0xc0
 8000504:	4a08      	ldr	r2, [pc, #32]	; (8000528 <HAL_SYSTICK_Config+0x30>)
 8000506:	4809      	ldr	r0, [pc, #36]	; (800052c <HAL_SYSTICK_Config+0x34>)
 8000508:	6053      	str	r3, [r2, #4]
 800050a:	6a03      	ldr	r3, [r0, #32]
 800050c:	0609      	lsls	r1, r1, #24
 800050e:	021b      	lsls	r3, r3, #8
 8000510:	0a1b      	lsrs	r3, r3, #8
 8000512:	430b      	orrs	r3, r1
 8000514:	6203      	str	r3, [r0, #32]
 8000516:	2300      	movs	r3, #0
 8000518:	2000      	movs	r0, #0
 800051a:	6093      	str	r3, [r2, #8]
 800051c:	3307      	adds	r3, #7
 800051e:	6013      	str	r3, [r2, #0]
 8000520:	4770      	bx	lr
 8000522:	46c0      	nop			; (mov r8, r8)
 8000524:	00ffffff 	.word	0x00ffffff
 8000528:	e000e010 	.word	0xe000e010
 800052c:	e000ed00 	.word	0xe000ed00

08000530 <HAL_DMA_Abort_IT>:
 8000530:	2321      	movs	r3, #33	; 0x21
 8000532:	b570      	push	{r4, r5, r6, lr}
 8000534:	5cc2      	ldrb	r2, [r0, r3]
 8000536:	2a02      	cmp	r2, #2
 8000538:	d003      	beq.n	8000542 <HAL_DMA_Abort_IT+0x12>
 800053a:	3b1d      	subs	r3, #29
 800053c:	6383      	str	r3, [r0, #56]	; 0x38
 800053e:	2001      	movs	r0, #1
 8000540:	bd70      	pop	{r4, r5, r6, pc}
 8000542:	240e      	movs	r4, #14
 8000544:	6802      	ldr	r2, [r0, #0]
 8000546:	6c05      	ldr	r5, [r0, #64]	; 0x40
 8000548:	6811      	ldr	r1, [r2, #0]
 800054a:	43a1      	bics	r1, r4
 800054c:	6011      	str	r1, [r2, #0]
 800054e:	2101      	movs	r1, #1
 8000550:	6814      	ldr	r4, [r2, #0]
 8000552:	438c      	bics	r4, r1
 8000554:	6014      	str	r4, [r2, #0]
 8000556:	000c      	movs	r4, r1
 8000558:	40ac      	lsls	r4, r5
 800055a:	6bc2      	ldr	r2, [r0, #60]	; 0x3c
 800055c:	6054      	str	r4, [r2, #4]
 800055e:	54c1      	strb	r1, [r0, r3]
 8000560:	2200      	movs	r2, #0
 8000562:	2320      	movs	r3, #32
 8000564:	54c2      	strb	r2, [r0, r3]
 8000566:	6b43      	ldr	r3, [r0, #52]	; 0x34
 8000568:	2b00      	cmp	r3, #0
 800056a:	d002      	beq.n	8000572 <HAL_DMA_Abort_IT+0x42>
 800056c:	4798      	blx	r3
 800056e:	2000      	movs	r0, #0
 8000570:	e7e6      	b.n	8000540 <HAL_DMA_Abort_IT+0x10>
 8000572:	2000      	movs	r0, #0
 8000574:	e7e4      	b.n	8000540 <HAL_DMA_Abort_IT+0x10>
 8000576:	46c0      	nop			; (mov r8, r8)

08000578 <HAL_GPIO_Init>:
 8000578:	b5f0      	push	{r4, r5, r6, r7, lr}
 800057a:	464e      	mov	r6, r9
 800057c:	46de      	mov	lr, fp
 800057e:	4657      	mov	r7, sl
 8000580:	4645      	mov	r5, r8
 8000582:	b5e0      	push	{r5, r6, r7, lr}
 8000584:	4689      	mov	r9, r1
 8000586:	6809      	ldr	r1, [r1, #0]
 8000588:	b085      	sub	sp, #20
 800058a:	2900      	cmp	r1, #0
 800058c:	d100      	bne.n	8000590 <HAL_GPIO_Init+0x18>
 800058e:	e07e      	b.n	800068e <HAL_GPIO_Init+0x116>
 8000590:	4b6c      	ldr	r3, [pc, #432]	; (8000744 <HAL_GPIO_Init+0x1cc>)
 8000592:	2200      	movs	r2, #0
 8000594:	469b      	mov	fp, r3
 8000596:	4b6c      	ldr	r3, [pc, #432]	; (8000748 <HAL_GPIO_Init+0x1d0>)
 8000598:	468a      	mov	sl, r1
 800059a:	4698      	mov	r8, r3
 800059c:	2501      	movs	r5, #1
 800059e:	4654      	mov	r4, sl
 80005a0:	4095      	lsls	r5, r2
 80005a2:	402c      	ands	r4, r5
 80005a4:	9400      	str	r4, [sp, #0]
 80005a6:	d06e      	beq.n	8000686 <HAL_GPIO_Init+0x10e>
 80005a8:	464b      	mov	r3, r9
 80005aa:	6859      	ldr	r1, [r3, #4]
 80005ac:	2310      	movs	r3, #16
 80005ae:	000f      	movs	r7, r1
 80005b0:	439f      	bics	r7, r3
 80005b2:	9701      	str	r7, [sp, #4]
 80005b4:	2f02      	cmp	r7, #2
 80005b6:	d100      	bne.n	80005ba <HAL_GPIO_Init+0x42>
 80005b8:	e070      	b.n	800069c <HAL_GPIO_Init+0x124>
 80005ba:	6803      	ldr	r3, [r0, #0]
 80005bc:	0056      	lsls	r6, r2, #1
 80005be:	469c      	mov	ip, r3
 80005c0:	2303      	movs	r3, #3
 80005c2:	40b3      	lsls	r3, r6
 80005c4:	4664      	mov	r4, ip
 80005c6:	43db      	mvns	r3, r3
 80005c8:	401c      	ands	r4, r3
 80005ca:	0027      	movs	r7, r4
 80005cc:	2403      	movs	r4, #3
 80005ce:	400c      	ands	r4, r1
 80005d0:	40b4      	lsls	r4, r6
 80005d2:	46a4      	mov	ip, r4
 80005d4:	003c      	movs	r4, r7
 80005d6:	4667      	mov	r7, ip
 80005d8:	433c      	orrs	r4, r7
 80005da:	9f01      	ldr	r7, [sp, #4]
 80005dc:	6004      	str	r4, [r0, #0]
 80005de:	3f01      	subs	r7, #1
 80005e0:	2f01      	cmp	r7, #1
 80005e2:	d800      	bhi.n	80005e6 <HAL_GPIO_Init+0x6e>
 80005e4:	e077      	b.n	80006d6 <HAL_GPIO_Init+0x15e>
 80005e6:	68c5      	ldr	r5, [r0, #12]
 80005e8:	402b      	ands	r3, r5
 80005ea:	464d      	mov	r5, r9
 80005ec:	68ad      	ldr	r5, [r5, #8]
 80005ee:	40b5      	lsls	r5, r6
 80005f0:	432b      	orrs	r3, r5
 80005f2:	60c3      	str	r3, [r0, #12]
 80005f4:	2380      	movs	r3, #128	; 0x80
 80005f6:	055b      	lsls	r3, r3, #21
 80005f8:	4219      	tst	r1, r3
 80005fa:	d044      	beq.n	8000686 <HAL_GPIO_Init+0x10e>
 80005fc:	465b      	mov	r3, fp
 80005fe:	2401      	movs	r4, #1
 8000600:	465d      	mov	r5, fp
 8000602:	2603      	movs	r6, #3
 8000604:	270f      	movs	r7, #15
 8000606:	699b      	ldr	r3, [r3, #24]
 8000608:	4016      	ands	r6, r2
 800060a:	4323      	orrs	r3, r4
 800060c:	61ab      	str	r3, [r5, #24]
 800060e:	69ab      	ldr	r3, [r5, #24]
 8000610:	00b6      	lsls	r6, r6, #2
 8000612:	4023      	ands	r3, r4
 8000614:	4c4d      	ldr	r4, [pc, #308]	; (800074c <HAL_GPIO_Init+0x1d4>)
 8000616:	40b7      	lsls	r7, r6
 8000618:	46a4      	mov	ip, r4
 800061a:	2490      	movs	r4, #144	; 0x90
 800061c:	9303      	str	r3, [sp, #12]
 800061e:	9b03      	ldr	r3, [sp, #12]
 8000620:	0893      	lsrs	r3, r2, #2
 8000622:	009b      	lsls	r3, r3, #2
 8000624:	4463      	add	r3, ip
 8000626:	689d      	ldr	r5, [r3, #8]
 8000628:	05e4      	lsls	r4, r4, #23
 800062a:	43bd      	bics	r5, r7
 800062c:	42a0      	cmp	r0, r4
 800062e:	d00e      	beq.n	800064e <HAL_GPIO_Init+0xd6>
 8000630:	4f47      	ldr	r7, [pc, #284]	; (8000750 <HAL_GPIO_Init+0x1d8>)
 8000632:	42b8      	cmp	r0, r7
 8000634:	d100      	bne.n	8000638 <HAL_GPIO_Init+0xc0>
 8000636:	e07c      	b.n	8000732 <HAL_GPIO_Init+0x1ba>
 8000638:	4f46      	ldr	r7, [pc, #280]	; (8000754 <HAL_GPIO_Init+0x1dc>)
 800063a:	42b8      	cmp	r0, r7
 800063c:	d100      	bne.n	8000640 <HAL_GPIO_Init+0xc8>
 800063e:	e074      	b.n	800072a <HAL_GPIO_Init+0x1b2>
 8000640:	4f45      	ldr	r7, [pc, #276]	; (8000758 <HAL_GPIO_Init+0x1e0>)
 8000642:	42b8      	cmp	r0, r7
 8000644:	d100      	bne.n	8000648 <HAL_GPIO_Init+0xd0>
 8000646:	e078      	b.n	800073a <HAL_GPIO_Init+0x1c2>
 8000648:	2705      	movs	r7, #5
 800064a:	40b7      	lsls	r7, r6
 800064c:	433d      	orrs	r5, r7
 800064e:	609d      	str	r5, [r3, #8]
 8000650:	4643      	mov	r3, r8
 8000652:	9c00      	ldr	r4, [sp, #0]
 8000654:	681b      	ldr	r3, [r3, #0]
 8000656:	43e5      	mvns	r5, r4
 8000658:	03cc      	lsls	r4, r1, #15
 800065a:	d44e      	bmi.n	80006fa <HAL_GPIO_Init+0x182>
 800065c:	4644      	mov	r4, r8
 800065e:	402b      	ands	r3, r5
 8000660:	6023      	str	r3, [r4, #0]
 8000662:	6863      	ldr	r3, [r4, #4]
 8000664:	038c      	lsls	r4, r1, #14
 8000666:	d44f      	bmi.n	8000708 <HAL_GPIO_Init+0x190>
 8000668:	4644      	mov	r4, r8
 800066a:	402b      	ands	r3, r5
 800066c:	6063      	str	r3, [r4, #4]
 800066e:	68a3      	ldr	r3, [r4, #8]
 8000670:	02cc      	lsls	r4, r1, #11
 8000672:	d450      	bmi.n	8000716 <HAL_GPIO_Init+0x19e>
 8000674:	4644      	mov	r4, r8
 8000676:	402b      	ands	r3, r5
 8000678:	60a3      	str	r3, [r4, #8]
 800067a:	68e3      	ldr	r3, [r4, #12]
 800067c:	0289      	lsls	r1, r1, #10
 800067e:	d451      	bmi.n	8000724 <HAL_GPIO_Init+0x1ac>
 8000680:	402b      	ands	r3, r5
 8000682:	4641      	mov	r1, r8
 8000684:	60cb      	str	r3, [r1, #12]
 8000686:	4653      	mov	r3, sl
 8000688:	3201      	adds	r2, #1
 800068a:	40d3      	lsrs	r3, r2
 800068c:	d186      	bne.n	800059c <HAL_GPIO_Init+0x24>
 800068e:	b005      	add	sp, #20
 8000690:	bc3c      	pop	{r2, r3, r4, r5}
 8000692:	4690      	mov	r8, r2
 8000694:	4699      	mov	r9, r3
 8000696:	46a2      	mov	sl, r4
 8000698:	46ab      	mov	fp, r5
 800069a:	bdf0      	pop	{r4, r5, r6, r7, pc}
 800069c:	2607      	movs	r6, #7
 800069e:	240f      	movs	r4, #15
 80006a0:	4016      	ands	r6, r2
 80006a2:	00b6      	lsls	r6, r6, #2
 80006a4:	40b4      	lsls	r4, r6
 80006a6:	08d3      	lsrs	r3, r2, #3
 80006a8:	009b      	lsls	r3, r3, #2
 80006aa:	18c3      	adds	r3, r0, r3
 80006ac:	6a1f      	ldr	r7, [r3, #32]
 80006ae:	43a7      	bics	r7, r4
 80006b0:	464c      	mov	r4, r9
 80006b2:	6924      	ldr	r4, [r4, #16]
 80006b4:	40b4      	lsls	r4, r6
 80006b6:	0026      	movs	r6, r4
 80006b8:	433e      	orrs	r6, r7
 80006ba:	621e      	str	r6, [r3, #32]
 80006bc:	2303      	movs	r3, #3
 80006be:	0056      	lsls	r6, r2, #1
 80006c0:	40b3      	lsls	r3, r6
 80006c2:	43db      	mvns	r3, r3
 80006c4:	6807      	ldr	r7, [r0, #0]
 80006c6:	401f      	ands	r7, r3
 80006c8:	46bc      	mov	ip, r7
 80006ca:	2703      	movs	r7, #3
 80006cc:	400f      	ands	r7, r1
 80006ce:	40b7      	lsls	r7, r6
 80006d0:	4664      	mov	r4, ip
 80006d2:	4327      	orrs	r7, r4
 80006d4:	6007      	str	r7, [r0, #0]
 80006d6:	6887      	ldr	r7, [r0, #8]
 80006d8:	464c      	mov	r4, r9
 80006da:	401f      	ands	r7, r3
 80006dc:	46bc      	mov	ip, r7
 80006de:	68e7      	ldr	r7, [r4, #12]
 80006e0:	4664      	mov	r4, ip
 80006e2:	40b7      	lsls	r7, r6
 80006e4:	4327      	orrs	r7, r4
 80006e6:	2401      	movs	r4, #1
 80006e8:	6087      	str	r7, [r0, #8]
 80006ea:	6847      	ldr	r7, [r0, #4]
 80006ec:	43af      	bics	r7, r5
 80006ee:	090d      	lsrs	r5, r1, #4
 80006f0:	4025      	ands	r5, r4
 80006f2:	4095      	lsls	r5, r2
 80006f4:	433d      	orrs	r5, r7
 80006f6:	6045      	str	r5, [r0, #4]
 80006f8:	e775      	b.n	80005e6 <HAL_GPIO_Init+0x6e>
 80006fa:	9c00      	ldr	r4, [sp, #0]
 80006fc:	4323      	orrs	r3, r4
 80006fe:	4644      	mov	r4, r8
 8000700:	6023      	str	r3, [r4, #0]
 8000702:	6863      	ldr	r3, [r4, #4]
 8000704:	038c      	lsls	r4, r1, #14
 8000706:	d5af      	bpl.n	8000668 <HAL_GPIO_Init+0xf0>
 8000708:	9c00      	ldr	r4, [sp, #0]
 800070a:	4323      	orrs	r3, r4
 800070c:	4644      	mov	r4, r8
 800070e:	6063      	str	r3, [r4, #4]
 8000710:	68a3      	ldr	r3, [r4, #8]
 8000712:	02cc      	lsls	r4, r1, #11
 8000714:	d5ae      	bpl.n	8000674 <HAL_GPIO_Init+0xfc>
 8000716:	9c00      	ldr	r4, [sp, #0]
 8000718:	4323      	orrs	r3, r4
 800071a:	4644      	mov	r4, r8
 800071c:	60a3      	str	r3, [r4, #8]
 800071e:	68e3      	ldr	r3, [r4, #12]
 8000720:	0289      	lsls	r1, r1, #10
 8000722:	d5ad      	bpl.n	8000680 <HAL_GPIO_Init+0x108>
 8000724:	9900      	ldr	r1, [sp, #0]
 8000726:	430b      	orrs	r3, r1
 8000728:	e7ab      	b.n	8000682 <HAL_GPIO_Init+0x10a>
 800072a:	2702      	movs	r7, #2
 800072c:	40b7      	lsls	r7, r6
 800072e:	433d      	orrs	r5, r7
 8000730:	e78d      	b.n	800064e <HAL_GPIO_Init+0xd6>
 8000732:	2401      	movs	r4, #1
 8000734:	40b4      	lsls	r4, r6
 8000736:	4325      	orrs	r5, r4
 8000738:	e789      	b.n	800064e <HAL_GPIO_Init+0xd6>
 800073a:	2403      	movs	r4, #3
 800073c:	40b4      	lsls	r4, r6
 800073e:	4325      	orrs	r5, r4
 8000740:	e785      	b.n	800064e <HAL_GPIO_Init+0xd6>
 8000742:	46c0      	nop			; (mov r8, r8)
 8000744:	40021000 	.word	0x40021000
 8000748:	40010400 	.word	0x40010400
 800074c:	40010000 	.word	0x40010000
 8000750:	48000400 	.word	0x48000400
 8000754:	48000800 	.word	0x48000800
 8000758:	48000c00 	.word	0x48000c00

0800075c <HAL_GPIO_ReadPin>:
 800075c:	6900      	ldr	r0, [r0, #16]
 800075e:	4008      	ands	r0, r1
 8000760:	1e41      	subs	r1, r0, #1
 8000762:	4188      	sbcs	r0, r1
 8000764:	b2c0      	uxtb	r0, r0
 8000766:	4770      	bx	lr

08000768 <HAL_GPIO_EXTI_IRQHandler>:
 8000768:	4b04      	ldr	r3, [pc, #16]	; (800077c <HAL_GPIO_EXTI_IRQHandler+0x14>)
 800076a:	b510      	push	{r4, lr}
 800076c:	695a      	ldr	r2, [r3, #20]
 800076e:	4210      	tst	r0, r2
 8000770:	d002      	beq.n	8000778 <HAL_GPIO_EXTI_IRQHandler+0x10>
 8000772:	6158      	str	r0, [r3, #20]
 8000774:	f002 fba2 	bl	8002ebc <HAL_GPIO_EXTI_Callback>
 8000778:	bd10      	pop	{r4, pc}
 800077a:	46c0      	nop			; (mov r8, r8)
 800077c:	40010400 	.word	0x40010400

08000780 <HAL_RCC_OscConfig>:
 8000780:	b5f0      	push	{r4, r5, r6, r7, lr}
 8000782:	46ce      	mov	lr, r9
 8000784:	4647      	mov	r7, r8
 8000786:	b580      	push	{r7, lr}
 8000788:	6803      	ldr	r3, [r0, #0]
 800078a:	b083      	sub	sp, #12
 800078c:	0004      	movs	r4, r0
 800078e:	07da      	lsls	r2, r3, #31
 8000790:	d52f      	bpl.n	80007f2 <HAL_RCC_OscConfig+0x72>
 8000792:	210c      	movs	r1, #12
 8000794:	48c4      	ldr	r0, [pc, #784]	; (8000aa8 <HAL_RCC_OscConfig+0x328>)
 8000796:	6842      	ldr	r2, [r0, #4]
 8000798:	400a      	ands	r2, r1
 800079a:	2a04      	cmp	r2, #4
 800079c:	d100      	bne.n	80007a0 <HAL_RCC_OscConfig+0x20>
 800079e:	e0df      	b.n	8000960 <HAL_RCC_OscConfig+0x1e0>
 80007a0:	6842      	ldr	r2, [r0, #4]
 80007a2:	4011      	ands	r1, r2
 80007a4:	2908      	cmp	r1, #8
 80007a6:	d100      	bne.n	80007aa <HAL_RCC_OscConfig+0x2a>
 80007a8:	e0d1      	b.n	800094e <HAL_RCC_OscConfig+0x1ce>
 80007aa:	6863      	ldr	r3, [r4, #4]
 80007ac:	2b01      	cmp	r3, #1
 80007ae:	d100      	bne.n	80007b2 <HAL_RCC_OscConfig+0x32>
 80007b0:	e110      	b.n	80009d4 <HAL_RCC_OscConfig+0x254>
 80007b2:	2b00      	cmp	r3, #0
 80007b4:	d100      	bne.n	80007b8 <HAL_RCC_OscConfig+0x38>
 80007b6:	e143      	b.n	8000a40 <HAL_RCC_OscConfig+0x2c0>
 80007b8:	2b05      	cmp	r3, #5
 80007ba:	d100      	bne.n	80007be <HAL_RCC_OscConfig+0x3e>
 80007bc:	e210      	b.n	8000be0 <HAL_RCC_OscConfig+0x460>
 80007be:	4bba      	ldr	r3, [pc, #744]	; (8000aa8 <HAL_RCC_OscConfig+0x328>)
 80007c0:	49ba      	ldr	r1, [pc, #744]	; (8000aac <HAL_RCC_OscConfig+0x32c>)
 80007c2:	681a      	ldr	r2, [r3, #0]
 80007c4:	400a      	ands	r2, r1
 80007c6:	601a      	str	r2, [r3, #0]
 80007c8:	681a      	ldr	r2, [r3, #0]
 80007ca:	49b9      	ldr	r1, [pc, #740]	; (8000ab0 <HAL_RCC_OscConfig+0x330>)
 80007cc:	400a      	ands	r2, r1
 80007ce:	601a      	str	r2, [r3, #0]
 80007d0:	f7ff fe3a 	bl	8000448 <HAL_GetTick>
 80007d4:	2580      	movs	r5, #128	; 0x80
 80007d6:	0007      	movs	r7, r0
 80007d8:	4eb3      	ldr	r6, [pc, #716]	; (8000aa8 <HAL_RCC_OscConfig+0x328>)
 80007da:	02ad      	lsls	r5, r5, #10
 80007dc:	e005      	b.n	80007ea <HAL_RCC_OscConfig+0x6a>
 80007de:	f7ff fe33 	bl	8000448 <HAL_GetTick>
 80007e2:	1bc0      	subs	r0, r0, r7
 80007e4:	2864      	cmp	r0, #100	; 0x64
 80007e6:	d900      	bls.n	80007ea <HAL_RCC_OscConfig+0x6a>
 80007e8:	e128      	b.n	8000a3c <HAL_RCC_OscConfig+0x2bc>
 80007ea:	6833      	ldr	r3, [r6, #0]
 80007ec:	422b      	tst	r3, r5
 80007ee:	d0f6      	beq.n	80007de <HAL_RCC_OscConfig+0x5e>
 80007f0:	6823      	ldr	r3, [r4, #0]
 80007f2:	079a      	lsls	r2, r3, #30
 80007f4:	d529      	bpl.n	800084a <HAL_RCC_OscConfig+0xca>
 80007f6:	220c      	movs	r2, #12
 80007f8:	49ab      	ldr	r1, [pc, #684]	; (8000aa8 <HAL_RCC_OscConfig+0x328>)
 80007fa:	6848      	ldr	r0, [r1, #4]
 80007fc:	4202      	tst	r2, r0
 80007fe:	d100      	bne.n	8000802 <HAL_RCC_OscConfig+0x82>
 8000800:	e0c2      	b.n	8000988 <HAL_RCC_OscConfig+0x208>
 8000802:	6848      	ldr	r0, [r1, #4]
 8000804:	4002      	ands	r2, r0
 8000806:	2a08      	cmp	r2, #8
 8000808:	d100      	bne.n	800080c <HAL_RCC_OscConfig+0x8c>
 800080a:	e0b4      	b.n	8000976 <HAL_RCC_OscConfig+0x1f6>
 800080c:	68e3      	ldr	r3, [r4, #12]
 800080e:	4da6      	ldr	r5, [pc, #664]	; (8000aa8 <HAL_RCC_OscConfig+0x328>)
 8000810:	2b00      	cmp	r3, #0
 8000812:	d100      	bne.n	8000816 <HAL_RCC_OscConfig+0x96>
 8000814:	e154      	b.n	8000ac0 <HAL_RCC_OscConfig+0x340>
 8000816:	2201      	movs	r2, #1
 8000818:	682b      	ldr	r3, [r5, #0]
 800081a:	2602      	movs	r6, #2
 800081c:	4313      	orrs	r3, r2
 800081e:	602b      	str	r3, [r5, #0]
 8000820:	f7ff fe12 	bl	8000448 <HAL_GetTick>
 8000824:	0007      	movs	r7, r0
 8000826:	e005      	b.n	8000834 <HAL_RCC_OscConfig+0xb4>
 8000828:	f7ff fe0e 	bl	8000448 <HAL_GetTick>
 800082c:	1bc0      	subs	r0, r0, r7
 800082e:	2802      	cmp	r0, #2
 8000830:	d900      	bls.n	8000834 <HAL_RCC_OscConfig+0xb4>
 8000832:	e103      	b.n	8000a3c <HAL_RCC_OscConfig+0x2bc>
 8000834:	682b      	ldr	r3, [r5, #0]
 8000836:	421e      	tst	r6, r3
 8000838:	d0f6      	beq.n	8000828 <HAL_RCC_OscConfig+0xa8>
 800083a:	21f8      	movs	r1, #248	; 0xf8
 800083c:	682a      	ldr	r2, [r5, #0]
 800083e:	6923      	ldr	r3, [r4, #16]
 8000840:	438a      	bics	r2, r1
 8000842:	00db      	lsls	r3, r3, #3
 8000844:	4313      	orrs	r3, r2
 8000846:	602b      	str	r3, [r5, #0]
 8000848:	6823      	ldr	r3, [r4, #0]
 800084a:	071a      	lsls	r2, r3, #28
 800084c:	d42b      	bmi.n	80008a6 <HAL_RCC_OscConfig+0x126>
 800084e:	075a      	lsls	r2, r3, #29
 8000850:	d543      	bpl.n	80008da <HAL_RCC_OscConfig+0x15a>
 8000852:	2280      	movs	r2, #128	; 0x80
 8000854:	4b94      	ldr	r3, [pc, #592]	; (8000aa8 <HAL_RCC_OscConfig+0x328>)
 8000856:	0552      	lsls	r2, r2, #21
 8000858:	69d9      	ldr	r1, [r3, #28]
 800085a:	2500      	movs	r5, #0
 800085c:	4211      	tst	r1, r2
 800085e:	d107      	bne.n	8000870 <HAL_RCC_OscConfig+0xf0>
 8000860:	69d9      	ldr	r1, [r3, #28]
 8000862:	3501      	adds	r5, #1
 8000864:	4311      	orrs	r1, r2
 8000866:	61d9      	str	r1, [r3, #28]
 8000868:	69db      	ldr	r3, [r3, #28]
 800086a:	401a      	ands	r2, r3
 800086c:	9201      	str	r2, [sp, #4]
 800086e:	9b01      	ldr	r3, [sp, #4]
 8000870:	2680      	movs	r6, #128	; 0x80
 8000872:	4f90      	ldr	r7, [pc, #576]	; (8000ab4 <HAL_RCC_OscConfig+0x334>)
 8000874:	0076      	lsls	r6, r6, #1
 8000876:	683b      	ldr	r3, [r7, #0]
 8000878:	4233      	tst	r3, r6
 800087a:	d100      	bne.n	800087e <HAL_RCC_OscConfig+0xfe>
 800087c:	e0b1      	b.n	80009e2 <HAL_RCC_OscConfig+0x262>
 800087e:	68a3      	ldr	r3, [r4, #8]
 8000880:	2b01      	cmp	r3, #1
 8000882:	d100      	bne.n	8000886 <HAL_RCC_OscConfig+0x106>
 8000884:	e0be      	b.n	8000a04 <HAL_RCC_OscConfig+0x284>
 8000886:	2b00      	cmp	r3, #0
 8000888:	d100      	bne.n	800088c <HAL_RCC_OscConfig+0x10c>
 800088a:	e0f2      	b.n	8000a72 <HAL_RCC_OscConfig+0x2f2>
 800088c:	2b05      	cmp	r3, #5
 800088e:	d100      	bne.n	8000892 <HAL_RCC_OscConfig+0x112>
 8000890:	e147      	b.n	8000b22 <HAL_RCC_OscConfig+0x3a2>
 8000892:	2101      	movs	r1, #1
 8000894:	4b84      	ldr	r3, [pc, #528]	; (8000aa8 <HAL_RCC_OscConfig+0x328>)
 8000896:	6a1a      	ldr	r2, [r3, #32]
 8000898:	438a      	bics	r2, r1
 800089a:	621a      	str	r2, [r3, #32]
 800089c:	6a1a      	ldr	r2, [r3, #32]
 800089e:	3103      	adds	r1, #3
 80008a0:	438a      	bics	r2, r1
 80008a2:	621a      	str	r2, [r3, #32]
 80008a4:	e0b2      	b.n	8000a0c <HAL_RCC_OscConfig+0x28c>
 80008a6:	69e3      	ldr	r3, [r4, #28]
 80008a8:	4d7f      	ldr	r5, [pc, #508]	; (8000aa8 <HAL_RCC_OscConfig+0x328>)
 80008aa:	2b00      	cmp	r3, #0
 80008ac:	d100      	bne.n	80008b0 <HAL_RCC_OscConfig+0x130>
 80008ae:	e07e      	b.n	80009ae <HAL_RCC_OscConfig+0x22e>
 80008b0:	2201      	movs	r2, #1
 80008b2:	6a6b      	ldr	r3, [r5, #36]	; 0x24
 80008b4:	2602      	movs	r6, #2
 80008b6:	4313      	orrs	r3, r2
 80008b8:	626b      	str	r3, [r5, #36]	; 0x24
 80008ba:	f7ff fdc5 	bl	8000448 <HAL_GetTick>
 80008be:	0007      	movs	r7, r0
 80008c0:	e005      	b.n	80008ce <HAL_RCC_OscConfig+0x14e>
 80008c2:	f7ff fdc1 	bl	8000448 <HAL_GetTick>
 80008c6:	1bc0      	subs	r0, r0, r7
 80008c8:	2802      	cmp	r0, #2
 80008ca:	d900      	bls.n	80008ce <HAL_RCC_OscConfig+0x14e>
 80008cc:	e0b6      	b.n	8000a3c <HAL_RCC_OscConfig+0x2bc>
 80008ce:	6a6b      	ldr	r3, [r5, #36]	; 0x24
 80008d0:	421e      	tst	r6, r3
 80008d2:	d0f6      	beq.n	80008c2 <HAL_RCC_OscConfig+0x142>
 80008d4:	6823      	ldr	r3, [r4, #0]
 80008d6:	075a      	lsls	r2, r3, #29
 80008d8:	d4bb      	bmi.n	8000852 <HAL_RCC_OscConfig+0xd2>
 80008da:	06db      	lsls	r3, r3, #27
 80008dc:	d512      	bpl.n	8000904 <HAL_RCC_OscConfig+0x184>
 80008de:	6963      	ldr	r3, [r4, #20]
 80008e0:	2b01      	cmp	r3, #1
 80008e2:	d100      	bne.n	80008e6 <HAL_RCC_OscConfig+0x166>
 80008e4:	e15e      	b.n	8000ba4 <HAL_RCC_OscConfig+0x424>
 80008e6:	3305      	adds	r3, #5
 80008e8:	d000      	beq.n	80008ec <HAL_RCC_OscConfig+0x16c>
 80008ea:	e0fc      	b.n	8000ae6 <HAL_RCC_OscConfig+0x366>
 80008ec:	2104      	movs	r1, #4
 80008ee:	20f8      	movs	r0, #248	; 0xf8
 80008f0:	4a6d      	ldr	r2, [pc, #436]	; (8000aa8 <HAL_RCC_OscConfig+0x328>)
 80008f2:	6b53      	ldr	r3, [r2, #52]	; 0x34
 80008f4:	438b      	bics	r3, r1
 80008f6:	6353      	str	r3, [r2, #52]	; 0x34
 80008f8:	6b51      	ldr	r1, [r2, #52]	; 0x34
 80008fa:	69a3      	ldr	r3, [r4, #24]
 80008fc:	4381      	bics	r1, r0
 80008fe:	00db      	lsls	r3, r3, #3
 8000900:	430b      	orrs	r3, r1
 8000902:	6353      	str	r3, [r2, #52]	; 0x34
 8000904:	6a23      	ldr	r3, [r4, #32]
 8000906:	2b00      	cmp	r3, #0
 8000908:	d01b      	beq.n	8000942 <HAL_RCC_OscConfig+0x1c2>
 800090a:	220c      	movs	r2, #12
 800090c:	4d66      	ldr	r5, [pc, #408]	; (8000aa8 <HAL_RCC_OscConfig+0x328>)
 800090e:	6869      	ldr	r1, [r5, #4]
 8000910:	400a      	ands	r2, r1
 8000912:	2a08      	cmp	r2, #8
 8000914:	d02d      	beq.n	8000972 <HAL_RCC_OscConfig+0x1f2>
 8000916:	2b02      	cmp	r3, #2
 8000918:	d100      	bne.n	800091c <HAL_RCC_OscConfig+0x19c>
 800091a:	e10c      	b.n	8000b36 <HAL_RCC_OscConfig+0x3b6>
 800091c:	682b      	ldr	r3, [r5, #0]
 800091e:	4a66      	ldr	r2, [pc, #408]	; (8000ab8 <HAL_RCC_OscConfig+0x338>)
 8000920:	2480      	movs	r4, #128	; 0x80
 8000922:	4013      	ands	r3, r2
 8000924:	602b      	str	r3, [r5, #0]
 8000926:	f7ff fd8f 	bl	8000448 <HAL_GetTick>
 800092a:	04a4      	lsls	r4, r4, #18
 800092c:	0006      	movs	r6, r0
 800092e:	e005      	b.n	800093c <HAL_RCC_OscConfig+0x1bc>
 8000930:	f7ff fd8a 	bl	8000448 <HAL_GetTick>
 8000934:	1b80      	subs	r0, r0, r6
 8000936:	2802      	cmp	r0, #2
 8000938:	d900      	bls.n	800093c <HAL_RCC_OscConfig+0x1bc>
 800093a:	e07f      	b.n	8000a3c <HAL_RCC_OscConfig+0x2bc>
 800093c:	682b      	ldr	r3, [r5, #0]
 800093e:	4223      	tst	r3, r4
 8000940:	d1f6      	bne.n	8000930 <HAL_RCC_OscConfig+0x1b0>
 8000942:	2000      	movs	r0, #0
 8000944:	b003      	add	sp, #12
 8000946:	bc0c      	pop	{r2, r3}
 8000948:	4690      	mov	r8, r2
 800094a:	4699      	mov	r9, r3
 800094c:	bdf0      	pop	{r4, r5, r6, r7, pc}
 800094e:	21c0      	movs	r1, #192	; 0xc0
 8000950:	6842      	ldr	r2, [r0, #4]
 8000952:	0249      	lsls	r1, r1, #9
 8000954:	400a      	ands	r2, r1
 8000956:	2180      	movs	r1, #128	; 0x80
 8000958:	0249      	lsls	r1, r1, #9
 800095a:	428a      	cmp	r2, r1
 800095c:	d000      	beq.n	8000960 <HAL_RCC_OscConfig+0x1e0>
 800095e:	e724      	b.n	80007aa <HAL_RCC_OscConfig+0x2a>
 8000960:	4a51      	ldr	r2, [pc, #324]	; (8000aa8 <HAL_RCC_OscConfig+0x328>)
 8000962:	6812      	ldr	r2, [r2, #0]
 8000964:	0392      	lsls	r2, r2, #14
 8000966:	d400      	bmi.n	800096a <HAL_RCC_OscConfig+0x1ea>
 8000968:	e743      	b.n	80007f2 <HAL_RCC_OscConfig+0x72>
 800096a:	6862      	ldr	r2, [r4, #4]
 800096c:	2a00      	cmp	r2, #0
 800096e:	d000      	beq.n	8000972 <HAL_RCC_OscConfig+0x1f2>
 8000970:	e73f      	b.n	80007f2 <HAL_RCC_OscConfig+0x72>
 8000972:	2001      	movs	r0, #1
 8000974:	e7e6      	b.n	8000944 <HAL_RCC_OscConfig+0x1c4>
 8000976:	684a      	ldr	r2, [r1, #4]
 8000978:	21c0      	movs	r1, #192	; 0xc0
 800097a:	0249      	lsls	r1, r1, #9
 800097c:	400a      	ands	r2, r1
 800097e:	2180      	movs	r1, #128	; 0x80
 8000980:	0209      	lsls	r1, r1, #8
 8000982:	428a      	cmp	r2, r1
 8000984:	d000      	beq.n	8000988 <HAL_RCC_OscConfig+0x208>
 8000986:	e741      	b.n	800080c <HAL_RCC_OscConfig+0x8c>
 8000988:	4a47      	ldr	r2, [pc, #284]	; (8000aa8 <HAL_RCC_OscConfig+0x328>)
 800098a:	6812      	ldr	r2, [r2, #0]
 800098c:	0792      	lsls	r2, r2, #30
 800098e:	d502      	bpl.n	8000996 <HAL_RCC_OscConfig+0x216>
 8000990:	68e2      	ldr	r2, [r4, #12]
 8000992:	2a01      	cmp	r2, #1
 8000994:	d1ed      	bne.n	8000972 <HAL_RCC_OscConfig+0x1f2>
 8000996:	25f8      	movs	r5, #248	; 0xf8
 8000998:	4843      	ldr	r0, [pc, #268]	; (8000aa8 <HAL_RCC_OscConfig+0x328>)
 800099a:	6922      	ldr	r2, [r4, #16]
 800099c:	6801      	ldr	r1, [r0, #0]
 800099e:	00d2      	lsls	r2, r2, #3
 80009a0:	43a9      	bics	r1, r5
 80009a2:	430a      	orrs	r2, r1
 80009a4:	6002      	str	r2, [r0, #0]
 80009a6:	071a      	lsls	r2, r3, #28
 80009a8:	d400      	bmi.n	80009ac <HAL_RCC_OscConfig+0x22c>
 80009aa:	e750      	b.n	800084e <HAL_RCC_OscConfig+0xce>
 80009ac:	e77b      	b.n	80008a6 <HAL_RCC_OscConfig+0x126>
 80009ae:	2201      	movs	r2, #1
 80009b0:	6a6b      	ldr	r3, [r5, #36]	; 0x24
 80009b2:	2602      	movs	r6, #2
 80009b4:	4393      	bics	r3, r2
 80009b6:	626b      	str	r3, [r5, #36]	; 0x24
 80009b8:	f7ff fd46 	bl	8000448 <HAL_GetTick>
 80009bc:	0007      	movs	r7, r0
 80009be:	e004      	b.n	80009ca <HAL_RCC_OscConfig+0x24a>
 80009c0:	f7ff fd42 	bl	8000448 <HAL_GetTick>
 80009c4:	1bc0      	subs	r0, r0, r7
 80009c6:	2802      	cmp	r0, #2
 80009c8:	d838      	bhi.n	8000a3c <HAL_RCC_OscConfig+0x2bc>
 80009ca:	6a6b      	ldr	r3, [r5, #36]	; 0x24
 80009cc:	421e      	tst	r6, r3
 80009ce:	d1f7      	bne.n	80009c0 <HAL_RCC_OscConfig+0x240>
 80009d0:	6823      	ldr	r3, [r4, #0]
 80009d2:	e780      	b.n	80008d6 <HAL_RCC_OscConfig+0x156>
 80009d4:	2380      	movs	r3, #128	; 0x80
 80009d6:	4a34      	ldr	r2, [pc, #208]	; (8000aa8 <HAL_RCC_OscConfig+0x328>)
 80009d8:	025b      	lsls	r3, r3, #9
 80009da:	6811      	ldr	r1, [r2, #0]
 80009dc:	430b      	orrs	r3, r1
 80009de:	6013      	str	r3, [r2, #0]
 80009e0:	e6f6      	b.n	80007d0 <HAL_RCC_OscConfig+0x50>
 80009e2:	683b      	ldr	r3, [r7, #0]
 80009e4:	4333      	orrs	r3, r6
 80009e6:	603b      	str	r3, [r7, #0]
 80009e8:	f7ff fd2e 	bl	8000448 <HAL_GetTick>
 80009ec:	4680      	mov	r8, r0
 80009ee:	e005      	b.n	80009fc <HAL_RCC_OscConfig+0x27c>
 80009f0:	f7ff fd2a 	bl	8000448 <HAL_GetTick>
 80009f4:	4643      	mov	r3, r8
 80009f6:	1ac0      	subs	r0, r0, r3
 80009f8:	2864      	cmp	r0, #100	; 0x64
 80009fa:	d81f      	bhi.n	8000a3c <HAL_RCC_OscConfig+0x2bc>
 80009fc:	683b      	ldr	r3, [r7, #0]
 80009fe:	4233      	tst	r3, r6
 8000a00:	d0f6      	beq.n	80009f0 <HAL_RCC_OscConfig+0x270>
 8000a02:	e73c      	b.n	800087e <HAL_RCC_OscConfig+0xfe>
 8000a04:	4928      	ldr	r1, [pc, #160]	; (8000aa8 <HAL_RCC_OscConfig+0x328>)
 8000a06:	6a0a      	ldr	r2, [r1, #32]
 8000a08:	4313      	orrs	r3, r2
 8000a0a:	620b      	str	r3, [r1, #32]
 8000a0c:	f7ff fd1c 	bl	8000448 <HAL_GetTick>
 8000a10:	4b2a      	ldr	r3, [pc, #168]	; (8000abc <HAL_RCC_OscConfig+0x33c>)
 8000a12:	4681      	mov	r9, r0
 8000a14:	4f24      	ldr	r7, [pc, #144]	; (8000aa8 <HAL_RCC_OscConfig+0x328>)
 8000a16:	2602      	movs	r6, #2
 8000a18:	4698      	mov	r8, r3
 8000a1a:	e005      	b.n	8000a28 <HAL_RCC_OscConfig+0x2a8>
 8000a1c:	f7ff fd14 	bl	8000448 <HAL_GetTick>
 8000a20:	464b      	mov	r3, r9
 8000a22:	1ac0      	subs	r0, r0, r3
 8000a24:	4540      	cmp	r0, r8
 8000a26:	d809      	bhi.n	8000a3c <HAL_RCC_OscConfig+0x2bc>
 8000a28:	6a3b      	ldr	r3, [r7, #32]
 8000a2a:	421e      	tst	r6, r3
 8000a2c:	d0f6      	beq.n	8000a1c <HAL_RCC_OscConfig+0x29c>
 8000a2e:	2d01      	cmp	r5, #1
 8000a30:	d070      	beq.n	8000b14 <HAL_RCC_OscConfig+0x394>
 8000a32:	6823      	ldr	r3, [r4, #0]
 8000a34:	06db      	lsls	r3, r3, #27
 8000a36:	d400      	bmi.n	8000a3a <HAL_RCC_OscConfig+0x2ba>
 8000a38:	e764      	b.n	8000904 <HAL_RCC_OscConfig+0x184>
 8000a3a:	e750      	b.n	80008de <HAL_RCC_OscConfig+0x15e>
 8000a3c:	2003      	movs	r0, #3
 8000a3e:	e781      	b.n	8000944 <HAL_RCC_OscConfig+0x1c4>
 8000a40:	4d19      	ldr	r5, [pc, #100]	; (8000aa8 <HAL_RCC_OscConfig+0x328>)
 8000a42:	4a1a      	ldr	r2, [pc, #104]	; (8000aac <HAL_RCC_OscConfig+0x32c>)
 8000a44:	682b      	ldr	r3, [r5, #0]
 8000a46:	2680      	movs	r6, #128	; 0x80
 8000a48:	4013      	ands	r3, r2
 8000a4a:	602b      	str	r3, [r5, #0]
 8000a4c:	682b      	ldr	r3, [r5, #0]
 8000a4e:	4a18      	ldr	r2, [pc, #96]	; (8000ab0 <HAL_RCC_OscConfig+0x330>)
 8000a50:	02b6      	lsls	r6, r6, #10
 8000a52:	4013      	ands	r3, r2
 8000a54:	602b      	str	r3, [r5, #0]
 8000a56:	f7ff fcf7 	bl	8000448 <HAL_GetTick>
 8000a5a:	0007      	movs	r7, r0
 8000a5c:	e004      	b.n	8000a68 <HAL_RCC_OscConfig+0x2e8>
 8000a5e:	f7ff fcf3 	bl	8000448 <HAL_GetTick>
 8000a62:	1bc0      	subs	r0, r0, r7
 8000a64:	2864      	cmp	r0, #100	; 0x64
 8000a66:	d8e9      	bhi.n	8000a3c <HAL_RCC_OscConfig+0x2bc>
 8000a68:	682b      	ldr	r3, [r5, #0]
 8000a6a:	4233      	tst	r3, r6
 8000a6c:	d1f7      	bne.n	8000a5e <HAL_RCC_OscConfig+0x2de>
 8000a6e:	6823      	ldr	r3, [r4, #0]
 8000a70:	e6bf      	b.n	80007f2 <HAL_RCC_OscConfig+0x72>
 8000a72:	2201      	movs	r2, #1
 8000a74:	4e0c      	ldr	r6, [pc, #48]	; (8000aa8 <HAL_RCC_OscConfig+0x328>)
 8000a76:	2702      	movs	r7, #2
 8000a78:	6a33      	ldr	r3, [r6, #32]
 8000a7a:	4393      	bics	r3, r2
 8000a7c:	6233      	str	r3, [r6, #32]
 8000a7e:	6a33      	ldr	r3, [r6, #32]
 8000a80:	3203      	adds	r2, #3
 8000a82:	4393      	bics	r3, r2
 8000a84:	6233      	str	r3, [r6, #32]
 8000a86:	f7ff fcdf 	bl	8000448 <HAL_GetTick>
 8000a8a:	4b0c      	ldr	r3, [pc, #48]	; (8000abc <HAL_RCC_OscConfig+0x33c>)
 8000a8c:	4681      	mov	r9, r0
 8000a8e:	4698      	mov	r8, r3
 8000a90:	e005      	b.n	8000a9e <HAL_RCC_OscConfig+0x31e>
 8000a92:	f7ff fcd9 	bl	8000448 <HAL_GetTick>
 8000a96:	464b      	mov	r3, r9
 8000a98:	1ac0      	subs	r0, r0, r3
 8000a9a:	4540      	cmp	r0, r8
 8000a9c:	d8ce      	bhi.n	8000a3c <HAL_RCC_OscConfig+0x2bc>
 8000a9e:	6a33      	ldr	r3, [r6, #32]
 8000aa0:	421f      	tst	r7, r3
 8000aa2:	d1f6      	bne.n	8000a92 <HAL_RCC_OscConfig+0x312>
 8000aa4:	e7c3      	b.n	8000a2e <HAL_RCC_OscConfig+0x2ae>
 8000aa6:	46c0      	nop			; (mov r8, r8)
 8000aa8:	40021000 	.word	0x40021000
 8000aac:	fffeffff 	.word	0xfffeffff
 8000ab0:	fffbffff 	.word	0xfffbffff
 8000ab4:	40007000 	.word	0x40007000
 8000ab8:	feffffff 	.word	0xfeffffff
 8000abc:	00001388 	.word	0x00001388
 8000ac0:	2201      	movs	r2, #1
 8000ac2:	682b      	ldr	r3, [r5, #0]
 8000ac4:	2602      	movs	r6, #2
 8000ac6:	4393      	bics	r3, r2
 8000ac8:	602b      	str	r3, [r5, #0]
 8000aca:	f7ff fcbd 	bl	8000448 <HAL_GetTick>
 8000ace:	0007      	movs	r7, r0
 8000ad0:	e004      	b.n	8000adc <HAL_RCC_OscConfig+0x35c>
 8000ad2:	f7ff fcb9 	bl	8000448 <HAL_GetTick>
 8000ad6:	1bc0      	subs	r0, r0, r7
 8000ad8:	2802      	cmp	r0, #2
 8000ada:	d8af      	bhi.n	8000a3c <HAL_RCC_OscConfig+0x2bc>
 8000adc:	682b      	ldr	r3, [r5, #0]
 8000ade:	421e      	tst	r6, r3
 8000ae0:	d1f7      	bne.n	8000ad2 <HAL_RCC_OscConfig+0x352>
 8000ae2:	6823      	ldr	r3, [r4, #0]
 8000ae4:	e6b1      	b.n	800084a <HAL_RCC_OscConfig+0xca>
 8000ae6:	2204      	movs	r2, #4
 8000ae8:	4d43      	ldr	r5, [pc, #268]	; (8000bf8 <HAL_RCC_OscConfig+0x478>)
 8000aea:	2602      	movs	r6, #2
 8000aec:	6b6b      	ldr	r3, [r5, #52]	; 0x34
 8000aee:	4313      	orrs	r3, r2
 8000af0:	636b      	str	r3, [r5, #52]	; 0x34
 8000af2:	6b6b      	ldr	r3, [r5, #52]	; 0x34
 8000af4:	3a03      	subs	r2, #3
 8000af6:	4393      	bics	r3, r2
 8000af8:	636b      	str	r3, [r5, #52]	; 0x34
 8000afa:	f7ff fca5 	bl	8000448 <HAL_GetTick>
 8000afe:	0007      	movs	r7, r0
 8000b00:	e004      	b.n	8000b0c <HAL_RCC_OscConfig+0x38c>
 8000b02:	f7ff fca1 	bl	8000448 <HAL_GetTick>
 8000b06:	1bc0      	subs	r0, r0, r7
 8000b08:	2802      	cmp	r0, #2
 8000b0a:	d897      	bhi.n	8000a3c <HAL_RCC_OscConfig+0x2bc>
 8000b0c:	6b6b      	ldr	r3, [r5, #52]	; 0x34
 8000b0e:	421e      	tst	r6, r3
 8000b10:	d1f7      	bne.n	8000b02 <HAL_RCC_OscConfig+0x382>
 8000b12:	e6f7      	b.n	8000904 <HAL_RCC_OscConfig+0x184>
 8000b14:	4a38      	ldr	r2, [pc, #224]	; (8000bf8 <HAL_RCC_OscConfig+0x478>)
 8000b16:	4939      	ldr	r1, [pc, #228]	; (8000bfc <HAL_RCC_OscConfig+0x47c>)
 8000b18:	69d3      	ldr	r3, [r2, #28]
 8000b1a:	400b      	ands	r3, r1
 8000b1c:	61d3      	str	r3, [r2, #28]
 8000b1e:	6823      	ldr	r3, [r4, #0]
 8000b20:	e788      	b.n	8000a34 <HAL_RCC_OscConfig+0x2b4>
 8000b22:	2104      	movs	r1, #4
 8000b24:	4b34      	ldr	r3, [pc, #208]	; (8000bf8 <HAL_RCC_OscConfig+0x478>)
 8000b26:	6a1a      	ldr	r2, [r3, #32]
 8000b28:	430a      	orrs	r2, r1
 8000b2a:	621a      	str	r2, [r3, #32]
 8000b2c:	6a1a      	ldr	r2, [r3, #32]
 8000b2e:	3903      	subs	r1, #3
 8000b30:	430a      	orrs	r2, r1
 8000b32:	621a      	str	r2, [r3, #32]
 8000b34:	e76a      	b.n	8000a0c <HAL_RCC_OscConfig+0x28c>
 8000b36:	682b      	ldr	r3, [r5, #0]
 8000b38:	4a31      	ldr	r2, [pc, #196]	; (8000c00 <HAL_RCC_OscConfig+0x480>)
 8000b3a:	2680      	movs	r6, #128	; 0x80
 8000b3c:	4013      	ands	r3, r2
 8000b3e:	602b      	str	r3, [r5, #0]
 8000b40:	f7ff fc82 	bl	8000448 <HAL_GetTick>
 8000b44:	04b6      	lsls	r6, r6, #18
 8000b46:	0007      	movs	r7, r0
 8000b48:	e005      	b.n	8000b56 <HAL_RCC_OscConfig+0x3d6>
 8000b4a:	f7ff fc7d 	bl	8000448 <HAL_GetTick>
 8000b4e:	1bc0      	subs	r0, r0, r7
 8000b50:	2802      	cmp	r0, #2
 8000b52:	d900      	bls.n	8000b56 <HAL_RCC_OscConfig+0x3d6>
 8000b54:	e772      	b.n	8000a3c <HAL_RCC_OscConfig+0x2bc>
 8000b56:	682b      	ldr	r3, [r5, #0]
 8000b58:	4233      	tst	r3, r6
 8000b5a:	d1f6      	bne.n	8000b4a <HAL_RCC_OscConfig+0x3ca>
 8000b5c:	220f      	movs	r2, #15
 8000b5e:	6aeb      	ldr	r3, [r5, #44]	; 0x2c
 8000b60:	4393      	bics	r3, r2
 8000b62:	6ae2      	ldr	r2, [r4, #44]	; 0x2c
 8000b64:	4313      	orrs	r3, r2
 8000b66:	62eb      	str	r3, [r5, #44]	; 0x2c
 8000b68:	6a61      	ldr	r1, [r4, #36]	; 0x24
 8000b6a:	6aa3      	ldr	r3, [r4, #40]	; 0x28
 8000b6c:	686a      	ldr	r2, [r5, #4]
 8000b6e:	430b      	orrs	r3, r1
 8000b70:	4924      	ldr	r1, [pc, #144]	; (8000c04 <HAL_RCC_OscConfig+0x484>)
 8000b72:	2480      	movs	r4, #128	; 0x80
 8000b74:	400a      	ands	r2, r1
 8000b76:	4313      	orrs	r3, r2
 8000b78:	606b      	str	r3, [r5, #4]
 8000b7a:	2380      	movs	r3, #128	; 0x80
 8000b7c:	682a      	ldr	r2, [r5, #0]
 8000b7e:	045b      	lsls	r3, r3, #17
 8000b80:	4313      	orrs	r3, r2
 8000b82:	602b      	str	r3, [r5, #0]
 8000b84:	f7ff fc60 	bl	8000448 <HAL_GetTick>
 8000b88:	4d1b      	ldr	r5, [pc, #108]	; (8000bf8 <HAL_RCC_OscConfig+0x478>)
 8000b8a:	0006      	movs	r6, r0
 8000b8c:	04a4      	lsls	r4, r4, #18
 8000b8e:	e005      	b.n	8000b9c <HAL_RCC_OscConfig+0x41c>
 8000b90:	f7ff fc5a 	bl	8000448 <HAL_GetTick>
 8000b94:	1b80      	subs	r0, r0, r6
 8000b96:	2802      	cmp	r0, #2
 8000b98:	d900      	bls.n	8000b9c <HAL_RCC_OscConfig+0x41c>
 8000b9a:	e74f      	b.n	8000a3c <HAL_RCC_OscConfig+0x2bc>
 8000b9c:	682b      	ldr	r3, [r5, #0]
 8000b9e:	4223      	tst	r3, r4
 8000ba0:	d0f6      	beq.n	8000b90 <HAL_RCC_OscConfig+0x410>
 8000ba2:	e6ce      	b.n	8000942 <HAL_RCC_OscConfig+0x1c2>
 8000ba4:	2104      	movs	r1, #4
 8000ba6:	4d14      	ldr	r5, [pc, #80]	; (8000bf8 <HAL_RCC_OscConfig+0x478>)
 8000ba8:	2602      	movs	r6, #2
 8000baa:	6b6a      	ldr	r2, [r5, #52]	; 0x34
 8000bac:	430a      	orrs	r2, r1
 8000bae:	636a      	str	r2, [r5, #52]	; 0x34
 8000bb0:	6b6a      	ldr	r2, [r5, #52]	; 0x34
 8000bb2:	4313      	orrs	r3, r2
 8000bb4:	636b      	str	r3, [r5, #52]	; 0x34
 8000bb6:	f7ff fc47 	bl	8000448 <HAL_GetTick>
 8000bba:	0007      	movs	r7, r0
 8000bbc:	e005      	b.n	8000bca <HAL_RCC_OscConfig+0x44a>
 8000bbe:	f7ff fc43 	bl	8000448 <HAL_GetTick>
 8000bc2:	1bc0      	subs	r0, r0, r7
 8000bc4:	2802      	cmp	r0, #2
 8000bc6:	d900      	bls.n	8000bca <HAL_RCC_OscConfig+0x44a>
 8000bc8:	e738      	b.n	8000a3c <HAL_RCC_OscConfig+0x2bc>
 8000bca:	6b6b      	ldr	r3, [r5, #52]	; 0x34
 8000bcc:	421e      	tst	r6, r3
 8000bce:	d0f6      	beq.n	8000bbe <HAL_RCC_OscConfig+0x43e>
 8000bd0:	21f8      	movs	r1, #248	; 0xf8
 8000bd2:	6b6a      	ldr	r2, [r5, #52]	; 0x34
 8000bd4:	69a3      	ldr	r3, [r4, #24]
 8000bd6:	438a      	bics	r2, r1
 8000bd8:	00db      	lsls	r3, r3, #3
 8000bda:	4313      	orrs	r3, r2
 8000bdc:	636b      	str	r3, [r5, #52]	; 0x34
 8000bde:	e691      	b.n	8000904 <HAL_RCC_OscConfig+0x184>
 8000be0:	2280      	movs	r2, #128	; 0x80
 8000be2:	4b05      	ldr	r3, [pc, #20]	; (8000bf8 <HAL_RCC_OscConfig+0x478>)
 8000be4:	02d2      	lsls	r2, r2, #11
 8000be6:	6819      	ldr	r1, [r3, #0]
 8000be8:	430a      	orrs	r2, r1
 8000bea:	601a      	str	r2, [r3, #0]
 8000bec:	2280      	movs	r2, #128	; 0x80
 8000bee:	6819      	ldr	r1, [r3, #0]
 8000bf0:	0252      	lsls	r2, r2, #9
 8000bf2:	430a      	orrs	r2, r1
 8000bf4:	601a      	str	r2, [r3, #0]
 8000bf6:	e5eb      	b.n	80007d0 <HAL_RCC_OscConfig+0x50>
 8000bf8:	40021000 	.word	0x40021000
 8000bfc:	efffffff 	.word	0xefffffff
 8000c00:	feffffff 	.word	0xfeffffff
 8000c04:	ffc27fff 	.word	0xffc27fff

08000c08 <HAL_RCC_ClockConfig>:
 8000c08:	b5f0      	push	{r4, r5, r6, r7, lr}
 8000c0a:	46ce      	mov	lr, r9
 8000c0c:	4647      	mov	r7, r8
 8000c0e:	2301      	movs	r3, #1
 8000c10:	b580      	push	{r7, lr}
 8000c12:	000c      	movs	r4, r1
 8000c14:	4959      	ldr	r1, [pc, #356]	; (8000d7c <HAL_RCC_ClockConfig+0x174>)
 8000c16:	b089      	sub	sp, #36	; 0x24
 8000c18:	680a      	ldr	r2, [r1, #0]
 8000c1a:	0005      	movs	r5, r0
 8000c1c:	401a      	ands	r2, r3
 8000c1e:	42a2      	cmp	r2, r4
 8000c20:	d20d      	bcs.n	8000c3e <HAL_RCC_ClockConfig+0x36>
 8000c22:	680a      	ldr	r2, [r1, #0]
 8000c24:	439a      	bics	r2, r3
 8000c26:	4322      	orrs	r2, r4
 8000c28:	600a      	str	r2, [r1, #0]
 8000c2a:	680a      	ldr	r2, [r1, #0]
 8000c2c:	4013      	ands	r3, r2
 8000c2e:	42a3      	cmp	r3, r4
 8000c30:	d005      	beq.n	8000c3e <HAL_RCC_ClockConfig+0x36>
 8000c32:	2001      	movs	r0, #1
 8000c34:	b009      	add	sp, #36	; 0x24
 8000c36:	bc0c      	pop	{r2, r3}
 8000c38:	4690      	mov	r8, r2
 8000c3a:	4699      	mov	r9, r3
 8000c3c:	bdf0      	pop	{r4, r5, r6, r7, pc}
 8000c3e:	682b      	ldr	r3, [r5, #0]
 8000c40:	079a      	lsls	r2, r3, #30
 8000c42:	d506      	bpl.n	8000c52 <HAL_RCC_ClockConfig+0x4a>
 8000c44:	20f0      	movs	r0, #240	; 0xf0
 8000c46:	494e      	ldr	r1, [pc, #312]	; (8000d80 <HAL_RCC_ClockConfig+0x178>)
 8000c48:	684a      	ldr	r2, [r1, #4]
 8000c4a:	4382      	bics	r2, r0
 8000c4c:	68a8      	ldr	r0, [r5, #8]
 8000c4e:	4302      	orrs	r2, r0
 8000c50:	604a      	str	r2, [r1, #4]
 8000c52:	07db      	lsls	r3, r3, #31
 8000c54:	d524      	bpl.n	8000ca0 <HAL_RCC_ClockConfig+0x98>
 8000c56:	4b4a      	ldr	r3, [pc, #296]	; (8000d80 <HAL_RCC_ClockConfig+0x178>)
 8000c58:	686a      	ldr	r2, [r5, #4]
 8000c5a:	681b      	ldr	r3, [r3, #0]
 8000c5c:	2a01      	cmp	r2, #1
 8000c5e:	d068      	beq.n	8000d32 <HAL_RCC_ClockConfig+0x12a>
 8000c60:	2a02      	cmp	r2, #2
 8000c62:	d063      	beq.n	8000d2c <HAL_RCC_ClockConfig+0x124>
 8000c64:	079b      	lsls	r3, r3, #30
 8000c66:	d5e4      	bpl.n	8000c32 <HAL_RCC_ClockConfig+0x2a>
 8000c68:	2103      	movs	r1, #3
 8000c6a:	4e45      	ldr	r6, [pc, #276]	; (8000d80 <HAL_RCC_ClockConfig+0x178>)
 8000c6c:	6873      	ldr	r3, [r6, #4]
 8000c6e:	438b      	bics	r3, r1
 8000c70:	4313      	orrs	r3, r2
 8000c72:	6073      	str	r3, [r6, #4]
 8000c74:	f7ff fbe8 	bl	8000448 <HAL_GetTick>
 8000c78:	686b      	ldr	r3, [r5, #4]
 8000c7a:	0007      	movs	r7, r0
 8000c7c:	2b01      	cmp	r3, #1
 8000c7e:	d05d      	beq.n	8000d3c <HAL_RCC_ClockConfig+0x134>
 8000c80:	2b02      	cmp	r3, #2
 8000c82:	d06b      	beq.n	8000d5c <HAL_RCC_ClockConfig+0x154>
 8000c84:	230c      	movs	r3, #12
 8000c86:	4698      	mov	r8, r3
 8000c88:	4b3e      	ldr	r3, [pc, #248]	; (8000d84 <HAL_RCC_ClockConfig+0x17c>)
 8000c8a:	4699      	mov	r9, r3
 8000c8c:	e004      	b.n	8000c98 <HAL_RCC_ClockConfig+0x90>
 8000c8e:	f7ff fbdb 	bl	8000448 <HAL_GetTick>
 8000c92:	1bc0      	subs	r0, r0, r7
 8000c94:	4548      	cmp	r0, r9
 8000c96:	d84f      	bhi.n	8000d38 <HAL_RCC_ClockConfig+0x130>
 8000c98:	4642      	mov	r2, r8
 8000c9a:	6873      	ldr	r3, [r6, #4]
 8000c9c:	421a      	tst	r2, r3
 8000c9e:	d1f6      	bne.n	8000c8e <HAL_RCC_ClockConfig+0x86>
 8000ca0:	2101      	movs	r1, #1
 8000ca2:	4a36      	ldr	r2, [pc, #216]	; (8000d7c <HAL_RCC_ClockConfig+0x174>)
 8000ca4:	6813      	ldr	r3, [r2, #0]
 8000ca6:	400b      	ands	r3, r1
 8000ca8:	42a3      	cmp	r3, r4
 8000caa:	d905      	bls.n	8000cb8 <HAL_RCC_ClockConfig+0xb0>
 8000cac:	6813      	ldr	r3, [r2, #0]
 8000cae:	438b      	bics	r3, r1
 8000cb0:	6013      	str	r3, [r2, #0]
 8000cb2:	6813      	ldr	r3, [r2, #0]
 8000cb4:	4219      	tst	r1, r3
 8000cb6:	d1bc      	bne.n	8000c32 <HAL_RCC_ClockConfig+0x2a>
 8000cb8:	682b      	ldr	r3, [r5, #0]
 8000cba:	075b      	lsls	r3, r3, #29
 8000cbc:	d506      	bpl.n	8000ccc <HAL_RCC_ClockConfig+0xc4>
 8000cbe:	4a30      	ldr	r2, [pc, #192]	; (8000d80 <HAL_RCC_ClockConfig+0x178>)
 8000cc0:	4931      	ldr	r1, [pc, #196]	; (8000d88 <HAL_RCC_ClockConfig+0x180>)
 8000cc2:	6853      	ldr	r3, [r2, #4]
 8000cc4:	400b      	ands	r3, r1
 8000cc6:	68e9      	ldr	r1, [r5, #12]
 8000cc8:	430b      	orrs	r3, r1
 8000cca:	6053      	str	r3, [r2, #4]
 8000ccc:	4669      	mov	r1, sp
 8000cce:	4b2f      	ldr	r3, [pc, #188]	; (8000d8c <HAL_RCC_ClockConfig+0x184>)
 8000cd0:	000a      	movs	r2, r1
 8000cd2:	0018      	movs	r0, r3
 8000cd4:	c870      	ldmia	r0!, {r4, r5, r6}
 8000cd6:	c270      	stmia	r2!, {r4, r5, r6}
 8000cd8:	6800      	ldr	r0, [r0, #0]
 8000cda:	3310      	adds	r3, #16
 8000cdc:	6010      	str	r0, [r2, #0]
 8000cde:	aa04      	add	r2, sp, #16
 8000ce0:	0010      	movs	r0, r2
 8000ce2:	cb70      	ldmia	r3!, {r4, r5, r6}
 8000ce4:	c070      	stmia	r0!, {r4, r5, r6}
 8000ce6:	681b      	ldr	r3, [r3, #0]
 8000ce8:	4c25      	ldr	r4, [pc, #148]	; (8000d80 <HAL_RCC_ClockConfig+0x178>)
 8000cea:	6003      	str	r3, [r0, #0]
 8000cec:	200c      	movs	r0, #12
 8000cee:	6863      	ldr	r3, [r4, #4]
 8000cf0:	4018      	ands	r0, r3
 8000cf2:	2808      	cmp	r0, #8
 8000cf4:	d118      	bne.n	8000d28 <HAL_RCC_ClockConfig+0x120>
 8000cf6:	6ae5      	ldr	r5, [r4, #44]	; 0x2c
 8000cf8:	3007      	adds	r0, #7
 8000cfa:	0c9b      	lsrs	r3, r3, #18
 8000cfc:	4003      	ands	r3, r0
 8000cfe:	4028      	ands	r0, r5
 8000d00:	5ccc      	ldrb	r4, [r1, r3]
 8000d02:	5c11      	ldrb	r1, [r2, r0]
 8000d04:	4822      	ldr	r0, [pc, #136]	; (8000d90 <HAL_RCC_ClockConfig+0x188>)
 8000d06:	f7ff f9ff 	bl	8000108 <__udivsi3>
 8000d0a:	4360      	muls	r0, r4
 8000d0c:	4b1c      	ldr	r3, [pc, #112]	; (8000d80 <HAL_RCC_ClockConfig+0x178>)
 8000d0e:	4a21      	ldr	r2, [pc, #132]	; (8000d94 <HAL_RCC_ClockConfig+0x18c>)
 8000d10:	685b      	ldr	r3, [r3, #4]
 8000d12:	061b      	lsls	r3, r3, #24
 8000d14:	0f1b      	lsrs	r3, r3, #28
 8000d16:	5cd3      	ldrb	r3, [r2, r3]
 8000d18:	40d8      	lsrs	r0, r3
 8000d1a:	4b1f      	ldr	r3, [pc, #124]	; (8000d98 <HAL_RCC_ClockConfig+0x190>)
 8000d1c:	6018      	str	r0, [r3, #0]
 8000d1e:	2000      	movs	r0, #0
 8000d20:	f7ff fb68 	bl	80003f4 <HAL_InitTick>
 8000d24:	2000      	movs	r0, #0
 8000d26:	e785      	b.n	8000c34 <HAL_RCC_ClockConfig+0x2c>
 8000d28:	4819      	ldr	r0, [pc, #100]	; (8000d90 <HAL_RCC_ClockConfig+0x188>)
 8000d2a:	e7ef      	b.n	8000d0c <HAL_RCC_ClockConfig+0x104>
 8000d2c:	019b      	lsls	r3, r3, #6
 8000d2e:	d49b      	bmi.n	8000c68 <HAL_RCC_ClockConfig+0x60>
 8000d30:	e77f      	b.n	8000c32 <HAL_RCC_ClockConfig+0x2a>
 8000d32:	039b      	lsls	r3, r3, #14
 8000d34:	d498      	bmi.n	8000c68 <HAL_RCC_ClockConfig+0x60>
 8000d36:	e77c      	b.n	8000c32 <HAL_RCC_ClockConfig+0x2a>
 8000d38:	2003      	movs	r0, #3
 8000d3a:	e77b      	b.n	8000c34 <HAL_RCC_ClockConfig+0x2c>
 8000d3c:	330b      	adds	r3, #11
 8000d3e:	4698      	mov	r8, r3
 8000d40:	4b10      	ldr	r3, [pc, #64]	; (8000d84 <HAL_RCC_ClockConfig+0x17c>)
 8000d42:	4699      	mov	r9, r3
 8000d44:	e004      	b.n	8000d50 <HAL_RCC_ClockConfig+0x148>
 8000d46:	f7ff fb7f 	bl	8000448 <HAL_GetTick>
 8000d4a:	1bc0      	subs	r0, r0, r7
 8000d4c:	4548      	cmp	r0, r9
 8000d4e:	d8f3      	bhi.n	8000d38 <HAL_RCC_ClockConfig+0x130>
 8000d50:	4642      	mov	r2, r8
 8000d52:	6873      	ldr	r3, [r6, #4]
 8000d54:	4013      	ands	r3, r2
 8000d56:	2b04      	cmp	r3, #4
 8000d58:	d1f5      	bne.n	8000d46 <HAL_RCC_ClockConfig+0x13e>
 8000d5a:	e7a1      	b.n	8000ca0 <HAL_RCC_ClockConfig+0x98>
 8000d5c:	330a      	adds	r3, #10
 8000d5e:	4698      	mov	r8, r3
 8000d60:	4b08      	ldr	r3, [pc, #32]	; (8000d84 <HAL_RCC_ClockConfig+0x17c>)
 8000d62:	4699      	mov	r9, r3
 8000d64:	e004      	b.n	8000d70 <HAL_RCC_ClockConfig+0x168>
 8000d66:	f7ff fb6f 	bl	8000448 <HAL_GetTick>
 8000d6a:	1bc0      	subs	r0, r0, r7
 8000d6c:	4548      	cmp	r0, r9
 8000d6e:	d8e3      	bhi.n	8000d38 <HAL_RCC_ClockConfig+0x130>
 8000d70:	4642      	mov	r2, r8
 8000d72:	6873      	ldr	r3, [r6, #4]
 8000d74:	4013      	ands	r3, r2
 8000d76:	2b08      	cmp	r3, #8
 8000d78:	d1f5      	bne.n	8000d66 <HAL_RCC_ClockConfig+0x15e>
 8000d7a:	e791      	b.n	8000ca0 <HAL_RCC_ClockConfig+0x98>
 8000d7c:	40022000 	.word	0x40022000
 8000d80:	40021000 	.word	0x40021000
 8000d84:	00001388 	.word	0x00001388
 8000d88:	fffff8ff 	.word	0xfffff8ff
 8000d8c:	080034dc 	.word	0x080034dc
 8000d90:	007a1200 	.word	0x007a1200
 8000d94:	0800352c 	.word	0x0800352c
 8000d98:	20000000 	.word	0x20000000

08000d9c <HAL_RCC_GetSysClockFreq>:
 8000d9c:	b570      	push	{r4, r5, r6, lr}
 8000d9e:	b088      	sub	sp, #32
 8000da0:	4669      	mov	r1, sp
 8000da2:	4b11      	ldr	r3, [pc, #68]	; (8000de8 <HAL_RCC_GetSysClockFreq+0x4c>)
 8000da4:	000a      	movs	r2, r1
 8000da6:	0018      	movs	r0, r3
 8000da8:	c870      	ldmia	r0!, {r4, r5, r6}
 8000daa:	c270      	stmia	r2!, {r4, r5, r6}
 8000dac:	6800      	ldr	r0, [r0, #0]
 8000dae:	3310      	adds	r3, #16
 8000db0:	6010      	str	r0, [r2, #0]
 8000db2:	aa04      	add	r2, sp, #16
 8000db4:	0010      	movs	r0, r2
 8000db6:	cb70      	ldmia	r3!, {r4, r5, r6}
 8000db8:	c070      	stmia	r0!, {r4, r5, r6}
 8000dba:	681b      	ldr	r3, [r3, #0]
 8000dbc:	4c0b      	ldr	r4, [pc, #44]	; (8000dec <HAL_RCC_GetSysClockFreq+0x50>)
 8000dbe:	6003      	str	r3, [r0, #0]
 8000dc0:	200c      	movs	r0, #12
 8000dc2:	6863      	ldr	r3, [r4, #4]
 8000dc4:	4018      	ands	r0, r3
 8000dc6:	2808      	cmp	r0, #8
 8000dc8:	d002      	beq.n	8000dd0 <HAL_RCC_GetSysClockFreq+0x34>
 8000dca:	4809      	ldr	r0, [pc, #36]	; (8000df0 <HAL_RCC_GetSysClockFreq+0x54>)
 8000dcc:	b008      	add	sp, #32
 8000dce:	bd70      	pop	{r4, r5, r6, pc}
 8000dd0:	6ae0      	ldr	r0, [r4, #44]	; 0x2c
 8000dd2:	240f      	movs	r4, #15
 8000dd4:	0c9b      	lsrs	r3, r3, #18
 8000dd6:	4023      	ands	r3, r4
 8000dd8:	4004      	ands	r4, r0
 8000dda:	5ccd      	ldrb	r5, [r1, r3]
 8000ddc:	4804      	ldr	r0, [pc, #16]	; (8000df0 <HAL_RCC_GetSysClockFreq+0x54>)
 8000dde:	5d11      	ldrb	r1, [r2, r4]
 8000de0:	f7ff f992 	bl	8000108 <__udivsi3>
 8000de4:	4368      	muls	r0, r5
 8000de6:	e7f1      	b.n	8000dcc <HAL_RCC_GetSysClockFreq+0x30>
 8000de8:	080034dc 	.word	0x080034dc
 8000dec:	40021000 	.word	0x40021000
 8000df0:	007a1200 	.word	0x007a1200

08000df4 <HAL_RCC_GetHCLKFreq>:
 8000df4:	4b01      	ldr	r3, [pc, #4]	; (8000dfc <HAL_RCC_GetHCLKFreq+0x8>)
 8000df6:	6818      	ldr	r0, [r3, #0]
 8000df8:	4770      	bx	lr
 8000dfa:	46c0      	nop			; (mov r8, r8)
 8000dfc:	20000000 	.word	0x20000000

08000e00 <HAL_RCC_GetPCLK1Freq>:
 8000e00:	4b04      	ldr	r3, [pc, #16]	; (8000e14 <HAL_RCC_GetPCLK1Freq+0x14>)
 8000e02:	4a05      	ldr	r2, [pc, #20]	; (8000e18 <HAL_RCC_GetPCLK1Freq+0x18>)
 8000e04:	685b      	ldr	r3, [r3, #4]
 8000e06:	055b      	lsls	r3, r3, #21
 8000e08:	0f5b      	lsrs	r3, r3, #29
 8000e0a:	5cd3      	ldrb	r3, [r2, r3]
 8000e0c:	4a03      	ldr	r2, [pc, #12]	; (8000e1c <HAL_RCC_GetPCLK1Freq+0x1c>)
 8000e0e:	6810      	ldr	r0, [r2, #0]
 8000e10:	40d8      	lsrs	r0, r3
 8000e12:	4770      	bx	lr
 8000e14:	40021000 	.word	0x40021000
 8000e18:	0800353c 	.word	0x0800353c
 8000e1c:	20000000 	.word	0x20000000

08000e20 <HAL_RCCEx_PeriphCLKConfig>:
 8000e20:	b5f0      	push	{r4, r5, r6, r7, lr}
 8000e22:	46ce      	mov	lr, r9
 8000e24:	4647      	mov	r7, r8
 8000e26:	b580      	push	{r7, lr}
 8000e28:	6803      	ldr	r3, [r0, #0]
 8000e2a:	b083      	sub	sp, #12
 8000e2c:	0004      	movs	r4, r0
 8000e2e:	03da      	lsls	r2, r3, #15
 8000e30:	d536      	bpl.n	8000ea0 <HAL_RCCEx_PeriphCLKConfig+0x80>
 8000e32:	2280      	movs	r2, #128	; 0x80
 8000e34:	4b40      	ldr	r3, [pc, #256]	; (8000f38 <HAL_RCCEx_PeriphCLKConfig+0x118>)
 8000e36:	0552      	lsls	r2, r2, #21
 8000e38:	69d9      	ldr	r1, [r3, #28]
 8000e3a:	2700      	movs	r7, #0
 8000e3c:	4211      	tst	r1, r2
 8000e3e:	d107      	bne.n	8000e50 <HAL_RCCEx_PeriphCLKConfig+0x30>
 8000e40:	69d9      	ldr	r1, [r3, #28]
 8000e42:	3701      	adds	r7, #1
 8000e44:	4311      	orrs	r1, r2
 8000e46:	61d9      	str	r1, [r3, #28]
 8000e48:	69db      	ldr	r3, [r3, #28]
 8000e4a:	401a      	ands	r2, r3
 8000e4c:	9201      	str	r2, [sp, #4]
 8000e4e:	9b01      	ldr	r3, [sp, #4]
 8000e50:	2680      	movs	r6, #128	; 0x80
 8000e52:	4d3a      	ldr	r5, [pc, #232]	; (8000f3c <HAL_RCCEx_PeriphCLKConfig+0x11c>)
 8000e54:	0076      	lsls	r6, r6, #1
 8000e56:	682b      	ldr	r3, [r5, #0]
 8000e58:	4233      	tst	r3, r6
 8000e5a:	d042      	beq.n	8000ee2 <HAL_RCCEx_PeriphCLKConfig+0xc2>
 8000e5c:	21c0      	movs	r1, #192	; 0xc0
 8000e5e:	4d36      	ldr	r5, [pc, #216]	; (8000f38 <HAL_RCCEx_PeriphCLKConfig+0x118>)
 8000e60:	0089      	lsls	r1, r1, #2
 8000e62:	6a2a      	ldr	r2, [r5, #32]
 8000e64:	6860      	ldr	r0, [r4, #4]
 8000e66:	400a      	ands	r2, r1
 8000e68:	d011      	beq.n	8000e8e <HAL_RCCEx_PeriphCLKConfig+0x6e>
 8000e6a:	4001      	ands	r1, r0
 8000e6c:	4291      	cmp	r1, r2
 8000e6e:	d00e      	beq.n	8000e8e <HAL_RCCEx_PeriphCLKConfig+0x6e>
 8000e70:	2280      	movs	r2, #128	; 0x80
 8000e72:	6a29      	ldr	r1, [r5, #32]
 8000e74:	6a2e      	ldr	r6, [r5, #32]
 8000e76:	0252      	lsls	r2, r2, #9
 8000e78:	4332      	orrs	r2, r6
 8000e7a:	622a      	str	r2, [r5, #32]
 8000e7c:	6a2a      	ldr	r2, [r5, #32]
 8000e7e:	4b30      	ldr	r3, [pc, #192]	; (8000f40 <HAL_RCCEx_PeriphCLKConfig+0x120>)
 8000e80:	4e30      	ldr	r6, [pc, #192]	; (8000f44 <HAL_RCCEx_PeriphCLKConfig+0x124>)
 8000e82:	400b      	ands	r3, r1
 8000e84:	4032      	ands	r2, r6
 8000e86:	622a      	str	r2, [r5, #32]
 8000e88:	622b      	str	r3, [r5, #32]
 8000e8a:	07cb      	lsls	r3, r1, #31
 8000e8c:	d442      	bmi.n	8000f14 <HAL_RCCEx_PeriphCLKConfig+0xf4>
 8000e8e:	4a2a      	ldr	r2, [pc, #168]	; (8000f38 <HAL_RCCEx_PeriphCLKConfig+0x118>)
 8000e90:	492b      	ldr	r1, [pc, #172]	; (8000f40 <HAL_RCCEx_PeriphCLKConfig+0x120>)
 8000e92:	6a13      	ldr	r3, [r2, #32]
 8000e94:	400b      	ands	r3, r1
 8000e96:	4303      	orrs	r3, r0
 8000e98:	6213      	str	r3, [r2, #32]
 8000e9a:	2f01      	cmp	r7, #1
 8000e9c:	d032      	beq.n	8000f04 <HAL_RCCEx_PeriphCLKConfig+0xe4>
 8000e9e:	6823      	ldr	r3, [r4, #0]
 8000ea0:	07da      	lsls	r2, r3, #31
 8000ea2:	d506      	bpl.n	8000eb2 <HAL_RCCEx_PeriphCLKConfig+0x92>
 8000ea4:	2003      	movs	r0, #3
 8000ea6:	4924      	ldr	r1, [pc, #144]	; (8000f38 <HAL_RCCEx_PeriphCLKConfig+0x118>)
 8000ea8:	6b0a      	ldr	r2, [r1, #48]	; 0x30
 8000eaa:	4382      	bics	r2, r0
 8000eac:	68a0      	ldr	r0, [r4, #8]
 8000eae:	4302      	orrs	r2, r0
 8000eb0:	630a      	str	r2, [r1, #48]	; 0x30
 8000eb2:	069a      	lsls	r2, r3, #26
 8000eb4:	d506      	bpl.n	8000ec4 <HAL_RCCEx_PeriphCLKConfig+0xa4>
 8000eb6:	2010      	movs	r0, #16
 8000eb8:	491f      	ldr	r1, [pc, #124]	; (8000f38 <HAL_RCCEx_PeriphCLKConfig+0x118>)
 8000eba:	6b0a      	ldr	r2, [r1, #48]	; 0x30
 8000ebc:	4382      	bics	r2, r0
 8000ebe:	68e0      	ldr	r0, [r4, #12]
 8000ec0:	4302      	orrs	r2, r0
 8000ec2:	630a      	str	r2, [r1, #48]	; 0x30
 8000ec4:	2000      	movs	r0, #0
 8000ec6:	039b      	lsls	r3, r3, #14
 8000ec8:	d506      	bpl.n	8000ed8 <HAL_RCCEx_PeriphCLKConfig+0xb8>
 8000eca:	2180      	movs	r1, #128	; 0x80
 8000ecc:	4a1a      	ldr	r2, [pc, #104]	; (8000f38 <HAL_RCCEx_PeriphCLKConfig+0x118>)
 8000ece:	6b13      	ldr	r3, [r2, #48]	; 0x30
 8000ed0:	438b      	bics	r3, r1
 8000ed2:	6921      	ldr	r1, [r4, #16]
 8000ed4:	430b      	orrs	r3, r1
 8000ed6:	6313      	str	r3, [r2, #48]	; 0x30
 8000ed8:	b003      	add	sp, #12
 8000eda:	bc0c      	pop	{r2, r3}
 8000edc:	4690      	mov	r8, r2
 8000ede:	4699      	mov	r9, r3
 8000ee0:	bdf0      	pop	{r4, r5, r6, r7, pc}
 8000ee2:	682b      	ldr	r3, [r5, #0]
 8000ee4:	4333      	orrs	r3, r6
 8000ee6:	602b      	str	r3, [r5, #0]
 8000ee8:	f7ff faae 	bl	8000448 <HAL_GetTick>
 8000eec:	4680      	mov	r8, r0
 8000eee:	e005      	b.n	8000efc <HAL_RCCEx_PeriphCLKConfig+0xdc>
 8000ef0:	f7ff faaa 	bl	8000448 <HAL_GetTick>
 8000ef4:	4643      	mov	r3, r8
 8000ef6:	1ac0      	subs	r0, r0, r3
 8000ef8:	2864      	cmp	r0, #100	; 0x64
 8000efa:	d809      	bhi.n	8000f10 <HAL_RCCEx_PeriphCLKConfig+0xf0>
 8000efc:	682b      	ldr	r3, [r5, #0]
 8000efe:	4233      	tst	r3, r6
 8000f00:	d0f6      	beq.n	8000ef0 <HAL_RCCEx_PeriphCLKConfig+0xd0>
 8000f02:	e7ab      	b.n	8000e5c <HAL_RCCEx_PeriphCLKConfig+0x3c>
 8000f04:	69d3      	ldr	r3, [r2, #28]
 8000f06:	4910      	ldr	r1, [pc, #64]	; (8000f48 <HAL_RCCEx_PeriphCLKConfig+0x128>)
 8000f08:	400b      	ands	r3, r1
 8000f0a:	61d3      	str	r3, [r2, #28]
 8000f0c:	6823      	ldr	r3, [r4, #0]
 8000f0e:	e7c7      	b.n	8000ea0 <HAL_RCCEx_PeriphCLKConfig+0x80>
 8000f10:	2003      	movs	r0, #3
 8000f12:	e7e1      	b.n	8000ed8 <HAL_RCCEx_PeriphCLKConfig+0xb8>
 8000f14:	f7ff fa98 	bl	8000448 <HAL_GetTick>
 8000f18:	4b0c      	ldr	r3, [pc, #48]	; (8000f4c <HAL_RCCEx_PeriphCLKConfig+0x12c>)
 8000f1a:	4680      	mov	r8, r0
 8000f1c:	2602      	movs	r6, #2
 8000f1e:	4699      	mov	r9, r3
 8000f20:	e005      	b.n	8000f2e <HAL_RCCEx_PeriphCLKConfig+0x10e>
 8000f22:	f7ff fa91 	bl	8000448 <HAL_GetTick>
 8000f26:	4643      	mov	r3, r8
 8000f28:	1ac0      	subs	r0, r0, r3
 8000f2a:	4548      	cmp	r0, r9
 8000f2c:	d8f0      	bhi.n	8000f10 <HAL_RCCEx_PeriphCLKConfig+0xf0>
 8000f2e:	6a2b      	ldr	r3, [r5, #32]
 8000f30:	421e      	tst	r6, r3
 8000f32:	d0f6      	beq.n	8000f22 <HAL_RCCEx_PeriphCLKConfig+0x102>
 8000f34:	6860      	ldr	r0, [r4, #4]
 8000f36:	e7aa      	b.n	8000e8e <HAL_RCCEx_PeriphCLKConfig+0x6e>
 8000f38:	40021000 	.word	0x40021000
 8000f3c:	40007000 	.word	0x40007000
 8000f40:	fffffcff 	.word	0xfffffcff
 8000f44:	fffeffff 	.word	0xfffeffff
 8000f48:	efffffff 	.word	0xefffffff
 8000f4c:	00001388 	.word	0x00001388

08000f50 <HAL_UART_Transmit>:
 8000f50:	b5f8      	push	{r3, r4, r5, r6, r7, lr}
 8000f52:	4647      	mov	r7, r8
 8000f54:	46ce      	mov	lr, r9
 8000f56:	001e      	movs	r6, r3
 8000f58:	2369      	movs	r3, #105	; 0x69
 8000f5a:	b580      	push	{r7, lr}
 8000f5c:	5cc3      	ldrb	r3, [r0, r3]
 8000f5e:	0005      	movs	r5, r0
 8000f60:	000f      	movs	r7, r1
 8000f62:	0014      	movs	r4, r2
 8000f64:	2002      	movs	r0, #2
 8000f66:	2b20      	cmp	r3, #32
 8000f68:	d137      	bne.n	8000fda <HAL_UART_Transmit+0x8a>
 8000f6a:	2900      	cmp	r1, #0
 8000f6c:	d039      	beq.n	8000fe2 <HAL_UART_Transmit+0x92>
 8000f6e:	3801      	subs	r0, #1
 8000f70:	2a00      	cmp	r2, #0
 8000f72:	d032      	beq.n	8000fda <HAL_UART_Transmit+0x8a>
 8000f74:	2380      	movs	r3, #128	; 0x80
 8000f76:	68aa      	ldr	r2, [r5, #8]
 8000f78:	015b      	lsls	r3, r3, #5
 8000f7a:	429a      	cmp	r2, r3
 8000f7c:	d033      	beq.n	8000fe6 <HAL_UART_Transmit+0x96>
 8000f7e:	2368      	movs	r3, #104	; 0x68
 8000f80:	5cea      	ldrb	r2, [r5, r3]
 8000f82:	2a01      	cmp	r2, #1
 8000f84:	d028      	beq.n	8000fd8 <HAL_UART_Transmit+0x88>
 8000f86:	2201      	movs	r2, #1
 8000f88:	54ea      	strb	r2, [r5, r3]
 8000f8a:	2300      	movs	r3, #0
 8000f8c:	3220      	adds	r2, #32
 8000f8e:	66eb      	str	r3, [r5, #108]	; 0x6c
 8000f90:	3369      	adds	r3, #105	; 0x69
 8000f92:	54ea      	strb	r2, [r5, r3]
 8000f94:	f7ff fa58 	bl	8000448 <HAL_GetTick>
 8000f98:	2350      	movs	r3, #80	; 0x50
 8000f9a:	52ec      	strh	r4, [r5, r3]
 8000f9c:	3302      	adds	r3, #2
 8000f9e:	52ec      	strh	r4, [r5, r3]
 8000fa0:	4681      	mov	r9, r0
 8000fa2:	4698      	mov	r8, r3
 8000fa4:	2480      	movs	r4, #128	; 0x80
 8000fa6:	682a      	ldr	r2, [r5, #0]
 8000fa8:	4643      	mov	r3, r8
 8000faa:	5aeb      	ldrh	r3, [r5, r3]
 8000fac:	2b00      	cmp	r3, #0
 8000fae:	d048      	beq.n	8001042 <HAL_UART_Transmit+0xf2>
 8000fb0:	4643      	mov	r3, r8
 8000fb2:	4641      	mov	r1, r8
 8000fb4:	5aeb      	ldrh	r3, [r5, r3]
 8000fb6:	3b01      	subs	r3, #1
 8000fb8:	b29b      	uxth	r3, r3
 8000fba:	526b      	strh	r3, [r5, r1]
 8000fbc:	1c73      	adds	r3, r6, #1
 8000fbe:	d118      	bne.n	8000ff2 <HAL_UART_Transmit+0xa2>
 8000fc0:	69d3      	ldr	r3, [r2, #28]
 8000fc2:	421c      	tst	r4, r3
 8000fc4:	d0fc      	beq.n	8000fc0 <HAL_UART_Transmit+0x70>
 8000fc6:	2380      	movs	r3, #128	; 0x80
 8000fc8:	68a9      	ldr	r1, [r5, #8]
 8000fca:	015b      	lsls	r3, r3, #5
 8000fcc:	4299      	cmp	r1, r3
 8000fce:	d02f      	beq.n	8001030 <HAL_UART_Transmit+0xe0>
 8000fd0:	783b      	ldrb	r3, [r7, #0]
 8000fd2:	3701      	adds	r7, #1
 8000fd4:	8513      	strh	r3, [r2, #40]	; 0x28
 8000fd6:	e7e7      	b.n	8000fa8 <HAL_UART_Transmit+0x58>
 8000fd8:	2002      	movs	r0, #2
 8000fda:	bc0c      	pop	{r2, r3}
 8000fdc:	4690      	mov	r8, r2
 8000fde:	4699      	mov	r9, r3
 8000fe0:	bdf8      	pop	{r3, r4, r5, r6, r7, pc}
 8000fe2:	2001      	movs	r0, #1
 8000fe4:	e7f9      	b.n	8000fda <HAL_UART_Transmit+0x8a>
 8000fe6:	692b      	ldr	r3, [r5, #16]
 8000fe8:	2b00      	cmp	r3, #0
 8000fea:	d1c8      	bne.n	8000f7e <HAL_UART_Transmit+0x2e>
 8000fec:	4201      	tst	r1, r0
 8000fee:	d0c6      	beq.n	8000f7e <HAL_UART_Transmit+0x2e>
 8000ff0:	e7f3      	b.n	8000fda <HAL_UART_Transmit+0x8a>
 8000ff2:	69d3      	ldr	r3, [r2, #28]
 8000ff4:	421c      	tst	r4, r3
 8000ff6:	d1e6      	bne.n	8000fc6 <HAL_UART_Transmit+0x76>
 8000ff8:	2e00      	cmp	r6, #0
 8000ffa:	d006      	beq.n	800100a <HAL_UART_Transmit+0xba>
 8000ffc:	f7ff fa24 	bl	8000448 <HAL_GetTick>
 8001000:	464b      	mov	r3, r9
 8001002:	682a      	ldr	r2, [r5, #0]
 8001004:	1ac0      	subs	r0, r0, r3
 8001006:	4286      	cmp	r6, r0
 8001008:	d2d8      	bcs.n	8000fbc <HAL_UART_Transmit+0x6c>
 800100a:	6813      	ldr	r3, [r2, #0]
 800100c:	491b      	ldr	r1, [pc, #108]	; (800107c <HAL_UART_Transmit+0x12c>)
 800100e:	2003      	movs	r0, #3
 8001010:	400b      	ands	r3, r1
 8001012:	6013      	str	r3, [r2, #0]
 8001014:	6893      	ldr	r3, [r2, #8]
 8001016:	31a3      	adds	r1, #163	; 0xa3
 8001018:	31ff      	adds	r1, #255	; 0xff
 800101a:	438b      	bics	r3, r1
 800101c:	6093      	str	r3, [r2, #8]
 800101e:	2320      	movs	r3, #32
 8001020:	2269      	movs	r2, #105	; 0x69
 8001022:	54ab      	strb	r3, [r5, r2]
 8001024:	3201      	adds	r2, #1
 8001026:	54ab      	strb	r3, [r5, r2]
 8001028:	2200      	movs	r2, #0
 800102a:	3348      	adds	r3, #72	; 0x48
 800102c:	54ea      	strb	r2, [r5, r3]
 800102e:	e7d4      	b.n	8000fda <HAL_UART_Transmit+0x8a>
 8001030:	692b      	ldr	r3, [r5, #16]
 8001032:	2b00      	cmp	r3, #0
 8001034:	d1cc      	bne.n	8000fd0 <HAL_UART_Transmit+0x80>
 8001036:	883b      	ldrh	r3, [r7, #0]
 8001038:	3702      	adds	r7, #2
 800103a:	05db      	lsls	r3, r3, #23
 800103c:	0ddb      	lsrs	r3, r3, #23
 800103e:	8513      	strh	r3, [r2, #40]	; 0x28
 8001040:	e7b2      	b.n	8000fa8 <HAL_UART_Transmit+0x58>
 8001042:	2440      	movs	r4, #64	; 0x40
 8001044:	1c73      	adds	r3, r6, #1
 8001046:	d10b      	bne.n	8001060 <HAL_UART_Transmit+0x110>
 8001048:	2140      	movs	r1, #64	; 0x40
 800104a:	69d3      	ldr	r3, [r2, #28]
 800104c:	4219      	tst	r1, r3
 800104e:	d0fc      	beq.n	800104a <HAL_UART_Transmit+0xfa>
 8001050:	2369      	movs	r3, #105	; 0x69
 8001052:	2220      	movs	r2, #32
 8001054:	54ea      	strb	r2, [r5, r3]
 8001056:	2200      	movs	r2, #0
 8001058:	3b01      	subs	r3, #1
 800105a:	54ea      	strb	r2, [r5, r3]
 800105c:	2000      	movs	r0, #0
 800105e:	e7bc      	b.n	8000fda <HAL_UART_Transmit+0x8a>
 8001060:	69d3      	ldr	r3, [r2, #28]
 8001062:	421c      	tst	r4, r3
 8001064:	d1f4      	bne.n	8001050 <HAL_UART_Transmit+0x100>
 8001066:	2e00      	cmp	r6, #0
 8001068:	d0cf      	beq.n	800100a <HAL_UART_Transmit+0xba>
 800106a:	f7ff f9ed 	bl	8000448 <HAL_GetTick>
 800106e:	464b      	mov	r3, r9
 8001070:	682a      	ldr	r2, [r5, #0]
 8001072:	1ac0      	subs	r0, r0, r3
 8001074:	4286      	cmp	r6, r0
 8001076:	d2e5      	bcs.n	8001044 <HAL_UART_Transmit+0xf4>
 8001078:	e7c7      	b.n	800100a <HAL_UART_Transmit+0xba>
 800107a:	46c0      	nop			; (mov r8, r8)
 800107c:	fffffe5f 	.word	0xfffffe5f

08001080 <HAL_UART_Receive_IT>:
 8001080:	0003      	movs	r3, r0
 8001082:	206a      	movs	r0, #106	; 0x6a
 8001084:	b570      	push	{r4, r5, r6, lr}
 8001086:	5c1c      	ldrb	r4, [r3, r0]
 8001088:	3868      	subs	r0, #104	; 0x68
 800108a:	2c20      	cmp	r4, #32
 800108c:	d12d      	bne.n	80010ea <HAL_UART_Receive_IT+0x6a>
 800108e:	2900      	cmp	r1, #0
 8001090:	d02c      	beq.n	80010ec <HAL_UART_Receive_IT+0x6c>
 8001092:	3801      	subs	r0, #1
 8001094:	2a00      	cmp	r2, #0
 8001096:	d028      	beq.n	80010ea <HAL_UART_Receive_IT+0x6a>
 8001098:	2580      	movs	r5, #128	; 0x80
 800109a:	689c      	ldr	r4, [r3, #8]
 800109c:	016d      	lsls	r5, r5, #5
 800109e:	42ac      	cmp	r4, r5
 80010a0:	d026      	beq.n	80010f0 <HAL_UART_Receive_IT+0x70>
 80010a2:	2568      	movs	r5, #104	; 0x68
 80010a4:	5d5e      	ldrb	r6, [r3, r5]
 80010a6:	2e01      	cmp	r6, #1
 80010a8:	d04d      	beq.n	8001146 <HAL_UART_Receive_IT+0xc6>
 80010aa:	5558      	strb	r0, [r3, r5]
 80010ac:	6559      	str	r1, [r3, #84]	; 0x54
 80010ae:	2158      	movs	r1, #88	; 0x58
 80010b0:	525a      	strh	r2, [r3, r1]
 80010b2:	3102      	adds	r1, #2
 80010b4:	525a      	strh	r2, [r3, r1]
 80010b6:	2c00      	cmp	r4, #0
 80010b8:	d12c      	bne.n	8001114 <HAL_UART_Receive_IT+0x94>
 80010ba:	691a      	ldr	r2, [r3, #16]
 80010bc:	2a00      	cmp	r2, #0
 80010be:	d13e      	bne.n	800113e <HAL_UART_Receive_IT+0xbe>
 80010c0:	225c      	movs	r2, #92	; 0x5c
 80010c2:	21ff      	movs	r1, #255	; 0xff
 80010c4:	5299      	strh	r1, [r3, r2]
 80010c6:	2200      	movs	r2, #0
 80010c8:	216a      	movs	r1, #106	; 0x6a
 80010ca:	2022      	movs	r0, #34	; 0x22
 80010cc:	66da      	str	r2, [r3, #108]	; 0x6c
 80010ce:	5458      	strb	r0, [r3, r1]
 80010d0:	3902      	subs	r1, #2
 80010d2:	545a      	strb	r2, [r3, r1]
 80010d4:	681b      	ldr	r3, [r3, #0]
 80010d6:	3967      	subs	r1, #103	; 0x67
 80010d8:	689a      	ldr	r2, [r3, #8]
 80010da:	2000      	movs	r0, #0
 80010dc:	430a      	orrs	r2, r1
 80010de:	609a      	str	r2, [r3, #8]
 80010e0:	2290      	movs	r2, #144	; 0x90
 80010e2:	6819      	ldr	r1, [r3, #0]
 80010e4:	0052      	lsls	r2, r2, #1
 80010e6:	430a      	orrs	r2, r1
 80010e8:	601a      	str	r2, [r3, #0]
 80010ea:	bd70      	pop	{r4, r5, r6, pc}
 80010ec:	2001      	movs	r0, #1
 80010ee:	e7fc      	b.n	80010ea <HAL_UART_Receive_IT+0x6a>
 80010f0:	691c      	ldr	r4, [r3, #16]
 80010f2:	2c00      	cmp	r4, #0
 80010f4:	d119      	bne.n	800112a <HAL_UART_Receive_IT+0xaa>
 80010f6:	4201      	tst	r1, r0
 80010f8:	d1f7      	bne.n	80010ea <HAL_UART_Receive_IT+0x6a>
 80010fa:	2068      	movs	r0, #104	; 0x68
 80010fc:	5c18      	ldrb	r0, [r3, r0]
 80010fe:	2801      	cmp	r0, #1
 8001100:	d021      	beq.n	8001146 <HAL_UART_Receive_IT+0xc6>
 8001102:	6559      	str	r1, [r3, #84]	; 0x54
 8001104:	2158      	movs	r1, #88	; 0x58
 8001106:	525a      	strh	r2, [r3, r1]
 8001108:	3102      	adds	r1, #2
 800110a:	525a      	strh	r2, [r3, r1]
 800110c:	225c      	movs	r2, #92	; 0x5c
 800110e:	490f      	ldr	r1, [pc, #60]	; (800114c <HAL_UART_Receive_IT+0xcc>)
 8001110:	5299      	strh	r1, [r3, r2]
 8001112:	e7d8      	b.n	80010c6 <HAL_UART_Receive_IT+0x46>
 8001114:	2280      	movs	r2, #128	; 0x80
 8001116:	0552      	lsls	r2, r2, #21
 8001118:	4294      	cmp	r4, r2
 800111a:	d1d4      	bne.n	80010c6 <HAL_UART_Receive_IT+0x46>
 800111c:	691a      	ldr	r2, [r3, #16]
 800111e:	2a00      	cmp	r2, #0
 8001120:	d00d      	beq.n	800113e <HAL_UART_Receive_IT+0xbe>
 8001122:	225c      	movs	r2, #92	; 0x5c
 8001124:	213f      	movs	r1, #63	; 0x3f
 8001126:	5299      	strh	r1, [r3, r2]
 8001128:	e7cd      	b.n	80010c6 <HAL_UART_Receive_IT+0x46>
 800112a:	2068      	movs	r0, #104	; 0x68
 800112c:	5c18      	ldrb	r0, [r3, r0]
 800112e:	2801      	cmp	r0, #1
 8001130:	d009      	beq.n	8001146 <HAL_UART_Receive_IT+0xc6>
 8001132:	6559      	str	r1, [r3, #84]	; 0x54
 8001134:	2158      	movs	r1, #88	; 0x58
 8001136:	525a      	strh	r2, [r3, r1]
 8001138:	3102      	adds	r1, #2
 800113a:	525a      	strh	r2, [r3, r1]
 800113c:	e7c0      	b.n	80010c0 <HAL_UART_Receive_IT+0x40>
 800113e:	225c      	movs	r2, #92	; 0x5c
 8001140:	217f      	movs	r1, #127	; 0x7f
 8001142:	5299      	strh	r1, [r3, r2]
 8001144:	e7bf      	b.n	80010c6 <HAL_UART_Receive_IT+0x46>
 8001146:	2002      	movs	r0, #2
 8001148:	e7cf      	b.n	80010ea <HAL_UART_Receive_IT+0x6a>
 800114a:	46c0      	nop			; (mov r8, r8)
 800114c:	000001ff 	.word	0x000001ff

08001150 <HAL_UART_TxCpltCallback>:
 8001150:	4770      	bx	lr
 8001152:	46c0      	nop			; (mov r8, r8)

08001154 <HAL_UART_ErrorCallback>:
 8001154:	4770      	bx	lr
 8001156:	46c0      	nop			; (mov r8, r8)

08001158 <UART_DMAAbortOnError>:
 8001158:	2300      	movs	r3, #0
 800115a:	225a      	movs	r2, #90	; 0x5a
 800115c:	b510      	push	{r4, lr}
 800115e:	6a40      	ldr	r0, [r0, #36]	; 0x24
 8001160:	5283      	strh	r3, [r0, r2]
 8001162:	3a08      	subs	r2, #8
 8001164:	5283      	strh	r3, [r0, r2]
 8001166:	f7ff fff5 	bl	8001154 <HAL_UART_ErrorCallback>
 800116a:	bd10      	pop	{r4, pc}

0800116c <HAL_UART_IRQHandler>:
 800116c:	6803      	ldr	r3, [r0, #0]
 800116e:	b570      	push	{r4, r5, r6, lr}
 8001170:	69da      	ldr	r2, [r3, #28]
 8001172:	0004      	movs	r4, r0
 8001174:	6819      	ldr	r1, [r3, #0]
 8001176:	0710      	lsls	r0, r2, #28
 8001178:	d110      	bne.n	800119c <HAL_UART_IRQHandler+0x30>
 800117a:	2020      	movs	r0, #32
 800117c:	4210      	tst	r0, r2
 800117e:	d15f      	bne.n	8001240 <HAL_UART_IRQHandler+0xd4>
 8001180:	6898      	ldr	r0, [r3, #8]
 8001182:	2080      	movs	r0, #128	; 0x80
 8001184:	4210      	tst	r0, r2
 8001186:	d002      	beq.n	800118e <HAL_UART_IRQHandler+0x22>
 8001188:	4208      	tst	r0, r1
 800118a:	d000      	beq.n	800118e <HAL_UART_IRQHandler+0x22>
 800118c:	e0aa      	b.n	80012e4 <HAL_UART_IRQHandler+0x178>
 800118e:	2040      	movs	r0, #64	; 0x40
 8001190:	4210      	tst	r0, r2
 8001192:	d002      	beq.n	800119a <HAL_UART_IRQHandler+0x2e>
 8001194:	4208      	tst	r0, r1
 8001196:	d000      	beq.n	800119a <HAL_UART_IRQHandler+0x2e>
 8001198:	e094      	b.n	80012c4 <HAL_UART_IRQHandler+0x158>
 800119a:	bd70      	pop	{r4, r5, r6, pc}
 800119c:	2501      	movs	r5, #1
 800119e:	6898      	ldr	r0, [r3, #8]
 80011a0:	4028      	ands	r0, r5
 80011a2:	d07b      	beq.n	800129c <HAL_UART_IRQHandler+0x130>
 80011a4:	2501      	movs	r5, #1
 80011a6:	4215      	tst	r5, r2
 80011a8:	d005      	beq.n	80011b6 <HAL_UART_IRQHandler+0x4a>
 80011aa:	05ce      	lsls	r6, r1, #23
 80011ac:	d503      	bpl.n	80011b6 <HAL_UART_IRQHandler+0x4a>
 80011ae:	621d      	str	r5, [r3, #32]
 80011b0:	6ee6      	ldr	r6, [r4, #108]	; 0x6c
 80011b2:	4335      	orrs	r5, r6
 80011b4:	66e5      	str	r5, [r4, #108]	; 0x6c
 80011b6:	2502      	movs	r5, #2
 80011b8:	4215      	tst	r5, r2
 80011ba:	d078      	beq.n	80012ae <HAL_UART_IRQHandler+0x142>
 80011bc:	2800      	cmp	r0, #0
 80011be:	d006      	beq.n	80011ce <HAL_UART_IRQHandler+0x62>
 80011c0:	2604      	movs	r6, #4
 80011c2:	621d      	str	r5, [r3, #32]
 80011c4:	6ee5      	ldr	r5, [r4, #108]	; 0x6c
 80011c6:	4335      	orrs	r5, r6
 80011c8:	66e5      	str	r5, [r4, #108]	; 0x6c
 80011ca:	4216      	tst	r6, r2
 80011cc:	d173      	bne.n	80012b6 <HAL_UART_IRQHandler+0x14a>
 80011ce:	0715      	lsls	r5, r2, #28
 80011d0:	d505      	bpl.n	80011de <HAL_UART_IRQHandler+0x72>
 80011d2:	068d      	lsls	r5, r1, #26
 80011d4:	d500      	bpl.n	80011d8 <HAL_UART_IRQHandler+0x6c>
 80011d6:	e07f      	b.n	80012d8 <HAL_UART_IRQHandler+0x16c>
 80011d8:	2800      	cmp	r0, #0
 80011da:	d000      	beq.n	80011de <HAL_UART_IRQHandler+0x72>
 80011dc:	e07c      	b.n	80012d8 <HAL_UART_IRQHandler+0x16c>
 80011de:	6ee0      	ldr	r0, [r4, #108]	; 0x6c
 80011e0:	2800      	cmp	r0, #0
 80011e2:	d0da      	beq.n	800119a <HAL_UART_IRQHandler+0x2e>
 80011e4:	2020      	movs	r0, #32
 80011e6:	4210      	tst	r0, r2
 80011e8:	d002      	beq.n	80011f0 <HAL_UART_IRQHandler+0x84>
 80011ea:	4208      	tst	r0, r1
 80011ec:	d000      	beq.n	80011f0 <HAL_UART_IRQHandler+0x84>
 80011ee:	e09b      	b.n	8001328 <HAL_UART_IRQHandler+0x1bc>
 80011f0:	6ee2      	ldr	r2, [r4, #108]	; 0x6c
 80011f2:	0712      	lsls	r2, r2, #28
 80011f4:	d404      	bmi.n	8001200 <HAL_UART_IRQHandler+0x94>
 80011f6:	2540      	movs	r5, #64	; 0x40
 80011f8:	689a      	ldr	r2, [r3, #8]
 80011fa:	4015      	ands	r5, r2
 80011fc:	d100      	bne.n	8001200 <HAL_UART_IRQHandler+0x94>
 80011fe:	e0bf      	b.n	8001380 <HAL_UART_IRQHandler+0x214>
 8001200:	681a      	ldr	r2, [r3, #0]
 8001202:	4976      	ldr	r1, [pc, #472]	; (80013dc <HAL_UART_IRQHandler+0x270>)
 8001204:	400a      	ands	r2, r1
 8001206:	601a      	str	r2, [r3, #0]
 8001208:	689a      	ldr	r2, [r3, #8]
 800120a:	3123      	adds	r1, #35	; 0x23
 800120c:	31ff      	adds	r1, #255	; 0xff
 800120e:	438a      	bics	r2, r1
 8001210:	609a      	str	r2, [r3, #8]
 8001212:	226a      	movs	r2, #106	; 0x6a
 8001214:	311f      	adds	r1, #31
 8001216:	54a1      	strb	r1, [r4, r2]
 8001218:	689a      	ldr	r2, [r3, #8]
 800121a:	3120      	adds	r1, #32
 800121c:	4211      	tst	r1, r2
 800121e:	d07a      	beq.n	8001316 <HAL_UART_IRQHandler+0x1aa>
 8001220:	689a      	ldr	r2, [r3, #8]
 8001222:	6e60      	ldr	r0, [r4, #100]	; 0x64
 8001224:	438a      	bics	r2, r1
 8001226:	609a      	str	r2, [r3, #8]
 8001228:	2800      	cmp	r0, #0
 800122a:	d074      	beq.n	8001316 <HAL_UART_IRQHandler+0x1aa>
 800122c:	4b6c      	ldr	r3, [pc, #432]	; (80013e0 <HAL_UART_IRQHandler+0x274>)
 800122e:	6343      	str	r3, [r0, #52]	; 0x34
 8001230:	f7ff f97e 	bl	8000530 <HAL_DMA_Abort_IT>
 8001234:	2800      	cmp	r0, #0
 8001236:	d0b0      	beq.n	800119a <HAL_UART_IRQHandler+0x2e>
 8001238:	6e60      	ldr	r0, [r4, #100]	; 0x64
 800123a:	6b43      	ldr	r3, [r0, #52]	; 0x34
 800123c:	4798      	blx	r3
 800123e:	e7ac      	b.n	800119a <HAL_UART_IRQHandler+0x2e>
 8001240:	4208      	tst	r0, r1
 8001242:	d09d      	beq.n	8001180 <HAL_UART_IRQHandler+0x14>
 8001244:	226a      	movs	r2, #106	; 0x6a
 8001246:	5ca2      	ldrb	r2, [r4, r2]
 8001248:	2a22      	cmp	r2, #34	; 0x22
 800124a:	d168      	bne.n	800131e <HAL_UART_IRQHandler+0x1b2>
 800124c:	2080      	movs	r0, #128	; 0x80
 800124e:	8c9b      	ldrh	r3, [r3, #36]	; 0x24
 8001250:	68a5      	ldr	r5, [r4, #8]
 8001252:	323a      	adds	r2, #58	; 0x3a
 8001254:	5aa2      	ldrh	r2, [r4, r2]
 8001256:	b29b      	uxth	r3, r3
 8001258:	6d61      	ldr	r1, [r4, #84]	; 0x54
 800125a:	0140      	lsls	r0, r0, #5
 800125c:	4285      	cmp	r5, r0
 800125e:	d100      	bne.n	8001262 <HAL_UART_IRQHandler+0xf6>
 8001260:	e0a0      	b.n	80013a4 <HAL_UART_IRQHandler+0x238>
 8001262:	1c48      	adds	r0, r1, #1
 8001264:	4013      	ands	r3, r2
 8001266:	6560      	str	r0, [r4, #84]	; 0x54
 8001268:	700b      	strb	r3, [r1, #0]
 800126a:	225a      	movs	r2, #90	; 0x5a
 800126c:	5aa3      	ldrh	r3, [r4, r2]
 800126e:	3b01      	subs	r3, #1
 8001270:	b29b      	uxth	r3, r3
 8001272:	52a3      	strh	r3, [r4, r2]
 8001274:	2b00      	cmp	r3, #0
 8001276:	d000      	beq.n	800127a <HAL_UART_IRQHandler+0x10e>
 8001278:	e78f      	b.n	800119a <HAL_UART_IRQHandler+0x2e>
 800127a:	6823      	ldr	r3, [r4, #0]
 800127c:	4957      	ldr	r1, [pc, #348]	; (80013dc <HAL_UART_IRQHandler+0x270>)
 800127e:	681a      	ldr	r2, [r3, #0]
 8001280:	0020      	movs	r0, r4
 8001282:	400a      	ands	r2, r1
 8001284:	601a      	str	r2, [r3, #0]
 8001286:	689a      	ldr	r2, [r3, #8]
 8001288:	3123      	adds	r1, #35	; 0x23
 800128a:	31ff      	adds	r1, #255	; 0xff
 800128c:	438a      	bics	r2, r1
 800128e:	609a      	str	r2, [r3, #8]
 8001290:	236a      	movs	r3, #106	; 0x6a
 8001292:	2220      	movs	r2, #32
 8001294:	54e2      	strb	r2, [r4, r3]
 8001296:	f002 f82b 	bl	80032f0 <HAL_UART_RxCpltCallback>
 800129a:	e77e      	b.n	800119a <HAL_UART_IRQHandler+0x2e>
 800129c:	2590      	movs	r5, #144	; 0x90
 800129e:	006d      	lsls	r5, r5, #1
 80012a0:	4229      	tst	r1, r5
 80012a2:	d100      	bne.n	80012a6 <HAL_UART_IRQHandler+0x13a>
 80012a4:	e76d      	b.n	8001182 <HAL_UART_IRQHandler+0x16>
 80012a6:	2501      	movs	r5, #1
 80012a8:	4215      	tst	r5, r2
 80012aa:	d084      	beq.n	80011b6 <HAL_UART_IRQHandler+0x4a>
 80012ac:	e77d      	b.n	80011aa <HAL_UART_IRQHandler+0x3e>
 80012ae:	0755      	lsls	r5, r2, #29
 80012b0:	d58d      	bpl.n	80011ce <HAL_UART_IRQHandler+0x62>
 80012b2:	2800      	cmp	r0, #0
 80012b4:	d08b      	beq.n	80011ce <HAL_UART_IRQHandler+0x62>
 80012b6:	2504      	movs	r5, #4
 80012b8:	2602      	movs	r6, #2
 80012ba:	621d      	str	r5, [r3, #32]
 80012bc:	6ee5      	ldr	r5, [r4, #108]	; 0x6c
 80012be:	4335      	orrs	r5, r6
 80012c0:	66e5      	str	r5, [r4, #108]	; 0x6c
 80012c2:	e784      	b.n	80011ce <HAL_UART_IRQHandler+0x62>
 80012c4:	681a      	ldr	r2, [r3, #0]
 80012c6:	4382      	bics	r2, r0
 80012c8:	601a      	str	r2, [r3, #0]
 80012ca:	2369      	movs	r3, #105	; 0x69
 80012cc:	2220      	movs	r2, #32
 80012ce:	0020      	movs	r0, r4
 80012d0:	54e2      	strb	r2, [r4, r3]
 80012d2:	f7ff ff3d 	bl	8001150 <HAL_UART_TxCpltCallback>
 80012d6:	e760      	b.n	800119a <HAL_UART_IRQHandler+0x2e>
 80012d8:	2508      	movs	r5, #8
 80012da:	621d      	str	r5, [r3, #32]
 80012dc:	6ee0      	ldr	r0, [r4, #108]	; 0x6c
 80012de:	4328      	orrs	r0, r5
 80012e0:	66e0      	str	r0, [r4, #108]	; 0x6c
 80012e2:	e77c      	b.n	80011de <HAL_UART_IRQHandler+0x72>
 80012e4:	2269      	movs	r2, #105	; 0x69
 80012e6:	5ca2      	ldrb	r2, [r4, r2]
 80012e8:	2a21      	cmp	r2, #33	; 0x21
 80012ea:	d000      	beq.n	80012ee <HAL_UART_IRQHandler+0x182>
 80012ec:	e755      	b.n	800119a <HAL_UART_IRQHandler+0x2e>
 80012ee:	3231      	adds	r2, #49	; 0x31
 80012f0:	5aa2      	ldrh	r2, [r4, r2]
 80012f2:	2a00      	cmp	r2, #0
 80012f4:	d049      	beq.n	800138a <HAL_UART_IRQHandler+0x21e>
 80012f6:	2180      	movs	r1, #128	; 0x80
 80012f8:	68a0      	ldr	r0, [r4, #8]
 80012fa:	6ce2      	ldr	r2, [r4, #76]	; 0x4c
 80012fc:	0149      	lsls	r1, r1, #5
 80012fe:	4288      	cmp	r0, r1
 8001300:	d059      	beq.n	80013b6 <HAL_UART_IRQHandler+0x24a>
 8001302:	1c51      	adds	r1, r2, #1
 8001304:	64e1      	str	r1, [r4, #76]	; 0x4c
 8001306:	7812      	ldrb	r2, [r2, #0]
 8001308:	851a      	strh	r2, [r3, #40]	; 0x28
 800130a:	2252      	movs	r2, #82	; 0x52
 800130c:	5aa3      	ldrh	r3, [r4, r2]
 800130e:	3b01      	subs	r3, #1
 8001310:	b29b      	uxth	r3, r3
 8001312:	52a3      	strh	r3, [r4, r2]
 8001314:	e741      	b.n	800119a <HAL_UART_IRQHandler+0x2e>
 8001316:	0020      	movs	r0, r4
 8001318:	f7ff ff1c 	bl	8001154 <HAL_UART_ErrorCallback>
 800131c:	e73d      	b.n	800119a <HAL_UART_IRQHandler+0x2e>
 800131e:	2108      	movs	r1, #8
 8001320:	699a      	ldr	r2, [r3, #24]
 8001322:	430a      	orrs	r2, r1
 8001324:	619a      	str	r2, [r3, #24]
 8001326:	e738      	b.n	800119a <HAL_UART_IRQHandler+0x2e>
 8001328:	226a      	movs	r2, #106	; 0x6a
 800132a:	5ca2      	ldrb	r2, [r4, r2]
 800132c:	2a22      	cmp	r2, #34	; 0x22
 800132e:	d134      	bne.n	800139a <HAL_UART_IRQHandler+0x22e>
 8001330:	2580      	movs	r5, #128	; 0x80
 8001332:	323a      	adds	r2, #58	; 0x3a
 8001334:	5aa1      	ldrh	r1, [r4, r2]
 8001336:	68a6      	ldr	r6, [r4, #8]
 8001338:	8c9a      	ldrh	r2, [r3, #36]	; 0x24
 800133a:	6d60      	ldr	r0, [r4, #84]	; 0x54
 800133c:	b292      	uxth	r2, r2
 800133e:	016d      	lsls	r5, r5, #5
 8001340:	42ae      	cmp	r6, r5
 8001342:	d042      	beq.n	80013ca <HAL_UART_IRQHandler+0x25e>
 8001344:	1c43      	adds	r3, r0, #1
 8001346:	400a      	ands	r2, r1
 8001348:	6563      	str	r3, [r4, #84]	; 0x54
 800134a:	7002      	strb	r2, [r0, #0]
 800134c:	6823      	ldr	r3, [r4, #0]
 800134e:	215a      	movs	r1, #90	; 0x5a
 8001350:	5a62      	ldrh	r2, [r4, r1]
 8001352:	3a01      	subs	r2, #1
 8001354:	b292      	uxth	r2, r2
 8001356:	5262      	strh	r2, [r4, r1]
 8001358:	2a00      	cmp	r2, #0
 800135a:	d000      	beq.n	800135e <HAL_UART_IRQHandler+0x1f2>
 800135c:	e748      	b.n	80011f0 <HAL_UART_IRQHandler+0x84>
 800135e:	681a      	ldr	r2, [r3, #0]
 8001360:	491e      	ldr	r1, [pc, #120]	; (80013dc <HAL_UART_IRQHandler+0x270>)
 8001362:	0020      	movs	r0, r4
 8001364:	400a      	ands	r2, r1
 8001366:	601a      	str	r2, [r3, #0]
 8001368:	689a      	ldr	r2, [r3, #8]
 800136a:	3123      	adds	r1, #35	; 0x23
 800136c:	31ff      	adds	r1, #255	; 0xff
 800136e:	438a      	bics	r2, r1
 8001370:	609a      	str	r2, [r3, #8]
 8001372:	236a      	movs	r3, #106	; 0x6a
 8001374:	2220      	movs	r2, #32
 8001376:	54e2      	strb	r2, [r4, r3]
 8001378:	f001 ffba 	bl	80032f0 <HAL_UART_RxCpltCallback>
 800137c:	6823      	ldr	r3, [r4, #0]
 800137e:	e737      	b.n	80011f0 <HAL_UART_IRQHandler+0x84>
 8001380:	0020      	movs	r0, r4
 8001382:	f7ff fee7 	bl	8001154 <HAL_UART_ErrorCallback>
 8001386:	66e5      	str	r5, [r4, #108]	; 0x6c
 8001388:	e707      	b.n	800119a <HAL_UART_IRQHandler+0x2e>
 800138a:	2140      	movs	r1, #64	; 0x40
 800138c:	681a      	ldr	r2, [r3, #0]
 800138e:	4382      	bics	r2, r0
 8001390:	601a      	str	r2, [r3, #0]
 8001392:	681a      	ldr	r2, [r3, #0]
 8001394:	430a      	orrs	r2, r1
 8001396:	601a      	str	r2, [r3, #0]
 8001398:	e6ff      	b.n	800119a <HAL_UART_IRQHandler+0x2e>
 800139a:	2108      	movs	r1, #8
 800139c:	699a      	ldr	r2, [r3, #24]
 800139e:	430a      	orrs	r2, r1
 80013a0:	619a      	str	r2, [r3, #24]
 80013a2:	e725      	b.n	80011f0 <HAL_UART_IRQHandler+0x84>
 80013a4:	6920      	ldr	r0, [r4, #16]
 80013a6:	2800      	cmp	r0, #0
 80013a8:	d000      	beq.n	80013ac <HAL_UART_IRQHandler+0x240>
 80013aa:	e75a      	b.n	8001262 <HAL_UART_IRQHandler+0xf6>
 80013ac:	4013      	ands	r3, r2
 80013ae:	800b      	strh	r3, [r1, #0]
 80013b0:	3102      	adds	r1, #2
 80013b2:	6561      	str	r1, [r4, #84]	; 0x54
 80013b4:	e759      	b.n	800126a <HAL_UART_IRQHandler+0xfe>
 80013b6:	6921      	ldr	r1, [r4, #16]
 80013b8:	2900      	cmp	r1, #0
 80013ba:	d1a2      	bne.n	8001302 <HAL_UART_IRQHandler+0x196>
 80013bc:	8811      	ldrh	r1, [r2, #0]
 80013be:	3202      	adds	r2, #2
 80013c0:	05c9      	lsls	r1, r1, #23
 80013c2:	0dc9      	lsrs	r1, r1, #23
 80013c4:	8519      	strh	r1, [r3, #40]	; 0x28
 80013c6:	64e2      	str	r2, [r4, #76]	; 0x4c
 80013c8:	e79f      	b.n	800130a <HAL_UART_IRQHandler+0x19e>
 80013ca:	6925      	ldr	r5, [r4, #16]
 80013cc:	2d00      	cmp	r5, #0
 80013ce:	d1b9      	bne.n	8001344 <HAL_UART_IRQHandler+0x1d8>
 80013d0:	400a      	ands	r2, r1
 80013d2:	8002      	strh	r2, [r0, #0]
 80013d4:	3002      	adds	r0, #2
 80013d6:	6560      	str	r0, [r4, #84]	; 0x54
 80013d8:	e7b9      	b.n	800134e <HAL_UART_IRQHandler+0x1e2>
 80013da:	46c0      	nop			; (mov r8, r8)
 80013dc:	fffffedf 	.word	0xfffffedf
 80013e0:	08001159 	.word	0x08001159

080013e4 <UART_AdvFeatureConfig>:
 80013e4:	6a43      	ldr	r3, [r0, #36]	; 0x24
 80013e6:	b530      	push	{r4, r5, lr}
 80013e8:	07da      	lsls	r2, r3, #31
 80013ea:	d506      	bpl.n	80013fa <UART_AdvFeatureConfig+0x16>
 80013ec:	6801      	ldr	r1, [r0, #0]
 80013ee:	4c28      	ldr	r4, [pc, #160]	; (8001490 <UART_AdvFeatureConfig+0xac>)
 80013f0:	684a      	ldr	r2, [r1, #4]
 80013f2:	4022      	ands	r2, r4
 80013f4:	6a84      	ldr	r4, [r0, #40]	; 0x28
 80013f6:	4322      	orrs	r2, r4
 80013f8:	604a      	str	r2, [r1, #4]
 80013fa:	079a      	lsls	r2, r3, #30
 80013fc:	d506      	bpl.n	800140c <UART_AdvFeatureConfig+0x28>
 80013fe:	6801      	ldr	r1, [r0, #0]
 8001400:	4c24      	ldr	r4, [pc, #144]	; (8001494 <UART_AdvFeatureConfig+0xb0>)
 8001402:	684a      	ldr	r2, [r1, #4]
 8001404:	4022      	ands	r2, r4
 8001406:	6ac4      	ldr	r4, [r0, #44]	; 0x2c
 8001408:	4322      	orrs	r2, r4
 800140a:	604a      	str	r2, [r1, #4]
 800140c:	075a      	lsls	r2, r3, #29
 800140e:	d506      	bpl.n	800141e <UART_AdvFeatureConfig+0x3a>
 8001410:	6801      	ldr	r1, [r0, #0]
 8001412:	4c21      	ldr	r4, [pc, #132]	; (8001498 <UART_AdvFeatureConfig+0xb4>)
 8001414:	684a      	ldr	r2, [r1, #4]
 8001416:	4022      	ands	r2, r4
 8001418:	6b04      	ldr	r4, [r0, #48]	; 0x30
 800141a:	4322      	orrs	r2, r4
 800141c:	604a      	str	r2, [r1, #4]
 800141e:	071a      	lsls	r2, r3, #28
 8001420:	d506      	bpl.n	8001430 <UART_AdvFeatureConfig+0x4c>
 8001422:	6801      	ldr	r1, [r0, #0]
 8001424:	4c1d      	ldr	r4, [pc, #116]	; (800149c <UART_AdvFeatureConfig+0xb8>)
 8001426:	684a      	ldr	r2, [r1, #4]
 8001428:	4022      	ands	r2, r4
 800142a:	6b44      	ldr	r4, [r0, #52]	; 0x34
 800142c:	4322      	orrs	r2, r4
 800142e:	604a      	str	r2, [r1, #4]
 8001430:	06da      	lsls	r2, r3, #27
 8001432:	d506      	bpl.n	8001442 <UART_AdvFeatureConfig+0x5e>
 8001434:	6801      	ldr	r1, [r0, #0]
 8001436:	4c1a      	ldr	r4, [pc, #104]	; (80014a0 <UART_AdvFeatureConfig+0xbc>)
 8001438:	688a      	ldr	r2, [r1, #8]
 800143a:	4022      	ands	r2, r4
 800143c:	6b84      	ldr	r4, [r0, #56]	; 0x38
 800143e:	4322      	orrs	r2, r4
 8001440:	608a      	str	r2, [r1, #8]
 8001442:	069a      	lsls	r2, r3, #26
 8001444:	d506      	bpl.n	8001454 <UART_AdvFeatureConfig+0x70>
 8001446:	6801      	ldr	r1, [r0, #0]
 8001448:	4c16      	ldr	r4, [pc, #88]	; (80014a4 <UART_AdvFeatureConfig+0xc0>)
 800144a:	688a      	ldr	r2, [r1, #8]
 800144c:	4022      	ands	r2, r4
 800144e:	6bc4      	ldr	r4, [r0, #60]	; 0x3c
 8001450:	4322      	orrs	r2, r4
 8001452:	608a      	str	r2, [r1, #8]
 8001454:	065a      	lsls	r2, r3, #25
 8001456:	d50a      	bpl.n	800146e <UART_AdvFeatureConfig+0x8a>
 8001458:	6801      	ldr	r1, [r0, #0]
 800145a:	4d13      	ldr	r5, [pc, #76]	; (80014a8 <UART_AdvFeatureConfig+0xc4>)
 800145c:	684a      	ldr	r2, [r1, #4]
 800145e:	6c04      	ldr	r4, [r0, #64]	; 0x40
 8001460:	402a      	ands	r2, r5
 8001462:	4322      	orrs	r2, r4
 8001464:	604a      	str	r2, [r1, #4]
 8001466:	2280      	movs	r2, #128	; 0x80
 8001468:	0352      	lsls	r2, r2, #13
 800146a:	4294      	cmp	r4, r2
 800146c:	d009      	beq.n	8001482 <UART_AdvFeatureConfig+0x9e>
 800146e:	061b      	lsls	r3, r3, #24
 8001470:	d506      	bpl.n	8001480 <UART_AdvFeatureConfig+0x9c>
 8001472:	6802      	ldr	r2, [r0, #0]
 8001474:	490d      	ldr	r1, [pc, #52]	; (80014ac <UART_AdvFeatureConfig+0xc8>)
 8001476:	6853      	ldr	r3, [r2, #4]
 8001478:	400b      	ands	r3, r1
 800147a:	6c81      	ldr	r1, [r0, #72]	; 0x48
 800147c:	430b      	orrs	r3, r1
 800147e:	6053      	str	r3, [r2, #4]
 8001480:	bd30      	pop	{r4, r5, pc}
 8001482:	684a      	ldr	r2, [r1, #4]
 8001484:	4c0a      	ldr	r4, [pc, #40]	; (80014b0 <UART_AdvFeatureConfig+0xcc>)
 8001486:	4022      	ands	r2, r4
 8001488:	6c44      	ldr	r4, [r0, #68]	; 0x44
 800148a:	4322      	orrs	r2, r4
 800148c:	604a      	str	r2, [r1, #4]
 800148e:	e7ee      	b.n	800146e <UART_AdvFeatureConfig+0x8a>
 8001490:	fffdffff 	.word	0xfffdffff
 8001494:	fffeffff 	.word	0xfffeffff
 8001498:	fffbffff 	.word	0xfffbffff
 800149c:	ffff7fff 	.word	0xffff7fff
 80014a0:	ffffefff 	.word	0xffffefff
 80014a4:	ffffdfff 	.word	0xffffdfff
 80014a8:	ffefffff 	.word	0xffefffff
 80014ac:	fff7ffff 	.word	0xfff7ffff
 80014b0:	ff9fffff 	.word	0xff9fffff

080014b4 <HAL_UART_Init>:
 80014b4:	b570      	push	{r4, r5, r6, lr}
 80014b6:	1e04      	subs	r4, r0, #0
 80014b8:	d030      	beq.n	800151c <HAL_UART_Init+0x68>
 80014ba:	2369      	movs	r3, #105	; 0x69
 80014bc:	5cc3      	ldrb	r3, [r0, r3]
 80014be:	b2db      	uxtb	r3, r3
 80014c0:	2b00      	cmp	r3, #0
 80014c2:	d02d      	beq.n	8001520 <HAL_UART_Init+0x6c>
 80014c4:	2369      	movs	r3, #105	; 0x69
 80014c6:	2224      	movs	r2, #36	; 0x24
 80014c8:	6825      	ldr	r5, [r4, #0]
 80014ca:	54e2      	strb	r2, [r4, r3]
 80014cc:	682b      	ldr	r3, [r5, #0]
 80014ce:	3a23      	subs	r2, #35	; 0x23
 80014d0:	4393      	bics	r3, r2
 80014d2:	602b      	str	r3, [r5, #0]
 80014d4:	6920      	ldr	r0, [r4, #16]
 80014d6:	68a3      	ldr	r3, [r4, #8]
 80014d8:	682a      	ldr	r2, [r5, #0]
 80014da:	4303      	orrs	r3, r0
 80014dc:	6960      	ldr	r0, [r4, #20]
 80014de:	69e1      	ldr	r1, [r4, #28]
 80014e0:	4303      	orrs	r3, r0
 80014e2:	4857      	ldr	r0, [pc, #348]	; (8001640 <HAL_UART_Init+0x18c>)
 80014e4:	430b      	orrs	r3, r1
 80014e6:	4002      	ands	r2, r0
 80014e8:	4313      	orrs	r3, r2
 80014ea:	602b      	str	r3, [r5, #0]
 80014ec:	686b      	ldr	r3, [r5, #4]
 80014ee:	4a55      	ldr	r2, [pc, #340]	; (8001644 <HAL_UART_Init+0x190>)
 80014f0:	6a20      	ldr	r0, [r4, #32]
 80014f2:	4013      	ands	r3, r2
 80014f4:	68e2      	ldr	r2, [r4, #12]
 80014f6:	4313      	orrs	r3, r2
 80014f8:	606b      	str	r3, [r5, #4]
 80014fa:	69a3      	ldr	r3, [r4, #24]
 80014fc:	68aa      	ldr	r2, [r5, #8]
 80014fe:	4303      	orrs	r3, r0
 8001500:	4851      	ldr	r0, [pc, #324]	; (8001648 <HAL_UART_Init+0x194>)
 8001502:	4002      	ands	r2, r0
 8001504:	4313      	orrs	r3, r2
 8001506:	60ab      	str	r3, [r5, #8]
 8001508:	4b50      	ldr	r3, [pc, #320]	; (800164c <HAL_UART_Init+0x198>)
 800150a:	429d      	cmp	r5, r3
 800150c:	d00d      	beq.n	800152a <HAL_UART_Init+0x76>
 800150e:	4b50      	ldr	r3, [pc, #320]	; (8001650 <HAL_UART_Init+0x19c>)
 8001510:	429d      	cmp	r5, r3
 8001512:	d020      	beq.n	8001556 <HAL_UART_Init+0xa2>
 8001514:	2380      	movs	r3, #128	; 0x80
 8001516:	021b      	lsls	r3, r3, #8
 8001518:	4299      	cmp	r1, r3
 800151a:	d05a      	beq.n	80015d2 <HAL_UART_Init+0x11e>
 800151c:	2001      	movs	r0, #1
 800151e:	bd70      	pop	{r4, r5, r6, pc}
 8001520:	2268      	movs	r2, #104	; 0x68
 8001522:	5483      	strb	r3, [r0, r2]
 8001524:	f001 fe7c 	bl	8003220 <HAL_UART_MspInit>
 8001528:	e7cc      	b.n	80014c4 <HAL_UART_Init+0x10>
 800152a:	4b4a      	ldr	r3, [pc, #296]	; (8001654 <HAL_UART_Init+0x1a0>)
 800152c:	6b1a      	ldr	r2, [r3, #48]	; 0x30
 800152e:	2303      	movs	r3, #3
 8001530:	4013      	ands	r3, r2
 8001532:	4a49      	ldr	r2, [pc, #292]	; (8001658 <HAL_UART_Init+0x1a4>)
 8001534:	5cd3      	ldrb	r3, [r2, r3]
 8001536:	2280      	movs	r2, #128	; 0x80
 8001538:	0212      	lsls	r2, r2, #8
 800153a:	4291      	cmp	r1, r2
 800153c:	d04d      	beq.n	80015da <HAL_UART_Init+0x126>
 800153e:	2b02      	cmp	r3, #2
 8001540:	d03f      	beq.n	80015c2 <HAL_UART_Init+0x10e>
 8001542:	d979      	bls.n	8001638 <HAL_UART_Init+0x184>
 8001544:	2b04      	cmp	r3, #4
 8001546:	d030      	beq.n	80015aa <HAL_UART_Init+0xf6>
 8001548:	2b08      	cmp	r3, #8
 800154a:	d1e7      	bne.n	800151c <HAL_UART_Init+0x68>
 800154c:	6863      	ldr	r3, [r4, #4]
 800154e:	0858      	lsrs	r0, r3, #1
 8001550:	2380      	movs	r3, #128	; 0x80
 8001552:	021b      	lsls	r3, r3, #8
 8001554:	e038      	b.n	80015c8 <HAL_UART_Init+0x114>
 8001556:	2380      	movs	r3, #128	; 0x80
 8001558:	021b      	lsls	r3, r3, #8
 800155a:	4299      	cmp	r1, r3
 800155c:	d054      	beq.n	8001608 <HAL_UART_Init+0x154>
 800155e:	f7ff fc4f 	bl	8000e00 <HAL_RCC_GetPCLK1Freq>
 8001562:	6863      	ldr	r3, [r4, #4]
 8001564:	6825      	ldr	r5, [r4, #0]
 8001566:	085b      	lsrs	r3, r3, #1
 8001568:	1818      	adds	r0, r3, r0
 800156a:	6861      	ldr	r1, [r4, #4]
 800156c:	f7fe fdcc 	bl	8000108 <__udivsi3>
 8001570:	0400      	lsls	r0, r0, #16
 8001572:	0c00      	lsrs	r0, r0, #16
 8001574:	60e8      	str	r0, [r5, #12]
 8001576:	6a63      	ldr	r3, [r4, #36]	; 0x24
 8001578:	2b00      	cmp	r3, #0
 800157a:	d11d      	bne.n	80015b8 <HAL_UART_Init+0x104>
 800157c:	686b      	ldr	r3, [r5, #4]
 800157e:	4a37      	ldr	r2, [pc, #220]	; (800165c <HAL_UART_Init+0x1a8>)
 8001580:	2169      	movs	r1, #105	; 0x69
 8001582:	4013      	ands	r3, r2
 8001584:	2208      	movs	r2, #8
 8001586:	606b      	str	r3, [r5, #4]
 8001588:	68ab      	ldr	r3, [r5, #8]
 800158a:	2000      	movs	r0, #0
 800158c:	4393      	bics	r3, r2
 800158e:	60ab      	str	r3, [r5, #8]
 8001590:	682b      	ldr	r3, [r5, #0]
 8001592:	3a07      	subs	r2, #7
 8001594:	4313      	orrs	r3, r2
 8001596:	602b      	str	r3, [r5, #0]
 8001598:	2300      	movs	r3, #0
 800159a:	321f      	adds	r2, #31
 800159c:	66e3      	str	r3, [r4, #108]	; 0x6c
 800159e:	5462      	strb	r2, [r4, r1]
 80015a0:	3101      	adds	r1, #1
 80015a2:	5462      	strb	r2, [r4, r1]
 80015a4:	3248      	adds	r2, #72	; 0x48
 80015a6:	54a3      	strb	r3, [r4, r2]
 80015a8:	e7b9      	b.n	800151e <HAL_UART_Init+0x6a>
 80015aa:	f7ff fbf7 	bl	8000d9c <HAL_RCC_GetSysClockFreq>
 80015ae:	6863      	ldr	r3, [r4, #4]
 80015b0:	6825      	ldr	r5, [r4, #0]
 80015b2:	085b      	lsrs	r3, r3, #1
 80015b4:	1818      	adds	r0, r3, r0
 80015b6:	e7d8      	b.n	800156a <HAL_UART_Init+0xb6>
 80015b8:	0020      	movs	r0, r4
 80015ba:	f7ff ff13 	bl	80013e4 <UART_AdvFeatureConfig>
 80015be:	6825      	ldr	r5, [r4, #0]
 80015c0:	e7dc      	b.n	800157c <HAL_UART_Init+0xc8>
 80015c2:	6863      	ldr	r3, [r4, #4]
 80015c4:	0858      	lsrs	r0, r3, #1
 80015c6:	4b26      	ldr	r3, [pc, #152]	; (8001660 <HAL_UART_Init+0x1ac>)
 80015c8:	469c      	mov	ip, r3
 80015ca:	4460      	add	r0, ip
 80015cc:	e7cd      	b.n	800156a <HAL_UART_Init+0xb6>
 80015ce:	2b00      	cmp	r3, #0
 80015d0:	d01a      	beq.n	8001608 <HAL_UART_Init+0x154>
 80015d2:	2300      	movs	r3, #0
 80015d4:	2001      	movs	r0, #1
 80015d6:	60eb      	str	r3, [r5, #12]
 80015d8:	e7a1      	b.n	800151e <HAL_UART_Init+0x6a>
 80015da:	2b02      	cmp	r3, #2
 80015dc:	d028      	beq.n	8001630 <HAL_UART_Init+0x17c>
 80015de:	d9f6      	bls.n	80015ce <HAL_UART_Init+0x11a>
 80015e0:	2b04      	cmp	r3, #4
 80015e2:	d022      	beq.n	800162a <HAL_UART_Init+0x176>
 80015e4:	2b08      	cmp	r3, #8
 80015e6:	d1f4      	bne.n	80015d2 <HAL_UART_Init+0x11e>
 80015e8:	6863      	ldr	r3, [r4, #4]
 80015ea:	0858      	lsrs	r0, r3, #1
 80015ec:	2380      	movs	r3, #128	; 0x80
 80015ee:	025b      	lsls	r3, r3, #9
 80015f0:	469c      	mov	ip, r3
 80015f2:	6861      	ldr	r1, [r4, #4]
 80015f4:	4460      	add	r0, ip
 80015f6:	f7fe fd87 	bl	8000108 <__udivsi3>
 80015fa:	4b1a      	ldr	r3, [pc, #104]	; (8001664 <HAL_UART_Init+0x1b0>)
 80015fc:	4003      	ands	r3, r0
 80015fe:	0700      	lsls	r0, r0, #28
 8001600:	0f40      	lsrs	r0, r0, #29
 8001602:	4318      	orrs	r0, r3
 8001604:	60e8      	str	r0, [r5, #12]
 8001606:	e7b6      	b.n	8001576 <HAL_UART_Init+0xc2>
 8001608:	f7ff fbfa 	bl	8000e00 <HAL_RCC_GetPCLK1Freq>
 800160c:	6863      	ldr	r3, [r4, #4]
 800160e:	0040      	lsls	r0, r0, #1
 8001610:	085b      	lsrs	r3, r3, #1
 8001612:	18c0      	adds	r0, r0, r3
 8001614:	6861      	ldr	r1, [r4, #4]
 8001616:	f7fe fd77 	bl	8000108 <__udivsi3>
 800161a:	4b12      	ldr	r3, [pc, #72]	; (8001664 <HAL_UART_Init+0x1b0>)
 800161c:	6825      	ldr	r5, [r4, #0]
 800161e:	4003      	ands	r3, r0
 8001620:	0700      	lsls	r0, r0, #28
 8001622:	0f40      	lsrs	r0, r0, #29
 8001624:	4318      	orrs	r0, r3
 8001626:	60e8      	str	r0, [r5, #12]
 8001628:	e7a5      	b.n	8001576 <HAL_UART_Init+0xc2>
 800162a:	f7ff fbb7 	bl	8000d9c <HAL_RCC_GetSysClockFreq>
 800162e:	e7ed      	b.n	800160c <HAL_UART_Init+0x158>
 8001630:	6863      	ldr	r3, [r4, #4]
 8001632:	0858      	lsrs	r0, r3, #1
 8001634:	4b0c      	ldr	r3, [pc, #48]	; (8001668 <HAL_UART_Init+0x1b4>)
 8001636:	e7db      	b.n	80015f0 <HAL_UART_Init+0x13c>
 8001638:	2b00      	cmp	r3, #0
 800163a:	d090      	beq.n	800155e <HAL_UART_Init+0xaa>
 800163c:	e76e      	b.n	800151c <HAL_UART_Init+0x68>
 800163e:	46c0      	nop			; (mov r8, r8)
 8001640:	efff69f3 	.word	0xefff69f3
 8001644:	ffffcfff 	.word	0xffffcfff
 8001648:	fffff4ff 	.word	0xfffff4ff
 800164c:	40013800 	.word	0x40013800
 8001650:	40004400 	.word	0x40004400
 8001654:	40021000 	.word	0x40021000
 8001658:	0800350c 	.word	0x0800350c
 800165c:	fffff7ff 	.word	0xfffff7ff
 8001660:	007a1200 	.word	0x007a1200
 8001664:	0000fff0 	.word	0x0000fff0
 8001668:	00f42400 	.word	0x00f42400

0800166c <FN_RM01_Get_File_Num>:
 800166c:	b510      	push	{r4, lr}
 800166e:	4b10      	ldr	r3, [pc, #64]	; (80016b0 <FN_RM01_Get_File_Num+0x44>)
 8001670:	b082      	sub	sp, #8
 8001672:	466a      	mov	r2, sp
 8001674:	9300      	str	r3, [sp, #0]
 8001676:	237e      	movs	r3, #126	; 0x7e
 8001678:	0004      	movs	r4, r0
 800167a:	7113      	strb	r3, [r2, #4]
 800167c:	f001 fe8a 	bl	8003394 <clean_uart2_rx_data>
 8001680:	23fa      	movs	r3, #250	; 0xfa
 8001682:	4669      	mov	r1, sp
 8001684:	009b      	lsls	r3, r3, #2
 8001686:	2205      	movs	r2, #5
 8001688:	480a      	ldr	r0, [pc, #40]	; (80016b4 <FN_RM01_Get_File_Num+0x48>)
 800168a:	f7ff fc61 	bl	8000f50 <HAL_UART_Transmit>
 800168e:	20c8      	movs	r0, #200	; 0xc8
 8001690:	f7fe fee0 	bl	8000454 <HAL_Delay>
 8001694:	6821      	ldr	r1, [r4, #0]
 8001696:	4a08      	ldr	r2, [pc, #32]	; (80016b8 <FN_RM01_Get_File_Num+0x4c>)
 8001698:	468c      	mov	ip, r1
 800169a:	7853      	ldrb	r3, [r2, #1]
 800169c:	021b      	lsls	r3, r3, #8
 800169e:	4463      	add	r3, ip
 80016a0:	6023      	str	r3, [r4, #0]
 80016a2:	7892      	ldrb	r2, [r2, #2]
 80016a4:	3a03      	subs	r2, #3
 80016a6:	18d3      	adds	r3, r2, r3
 80016a8:	6023      	str	r3, [r4, #0]
 80016aa:	b002      	add	sp, #8
 80016ac:	bd10      	pop	{r4, pc}
 80016ae:	46c0      	nop			; (mov r8, r8)
 80016b0:	c8c5037e 	.word	0xc8c5037e
 80016b4:	20000570 	.word	0x20000570
 80016b8:	20000498 	.word	0x20000498

080016bc <FN_RM01_Play_Sound>:
 80016bc:	b530      	push	{r4, r5, lr}
 80016be:	4b13      	ldr	r3, [pc, #76]	; (800170c <FN_RM01_Play_Sound+0x50>)
 80016c0:	b085      	sub	sp, #20
 80016c2:	ac01      	add	r4, sp, #4
 80016c4:	8023      	strh	r3, [r4, #0]
 80016c6:	23a3      	movs	r3, #163	; 0xa3
 80016c8:	7805      	ldrb	r5, [r0, #0]
 80016ca:	7841      	ldrb	r1, [r0, #1]
 80016cc:	7882      	ldrb	r2, [r0, #2]
 80016ce:	70a3      	strb	r3, [r4, #2]
 80016d0:	70e5      	strb	r5, [r4, #3]
 80016d2:	3b25      	subs	r3, #37	; 0x25
 80016d4:	3d56      	subs	r5, #86	; 0x56
 80016d6:	7223      	strb	r3, [r4, #8]
 80016d8:	7121      	strb	r1, [r4, #4]
 80016da:	78c3      	ldrb	r3, [r0, #3]
 80016dc:	1949      	adds	r1, r1, r5
 80016de:	7162      	strb	r2, [r4, #5]
 80016e0:	1852      	adds	r2, r2, r1
 80016e2:	71a3      	strb	r3, [r4, #6]
 80016e4:	189b      	adds	r3, r3, r2
 80016e6:	71e3      	strb	r3, [r4, #7]
 80016e8:	f001 fe54 	bl	8003394 <clean_uart2_rx_data>
 80016ec:	23fa      	movs	r3, #250	; 0xfa
 80016ee:	2209      	movs	r2, #9
 80016f0:	009b      	lsls	r3, r3, #2
 80016f2:	0021      	movs	r1, r4
 80016f4:	4806      	ldr	r0, [pc, #24]	; (8001710 <FN_RM01_Play_Sound+0x54>)
 80016f6:	f7ff fc2b 	bl	8000f50 <HAL_UART_Transmit>
 80016fa:	20fa      	movs	r0, #250	; 0xfa
 80016fc:	f7fe feaa 	bl	8000454 <HAL_Delay>
 8001700:	4b04      	ldr	r3, [pc, #16]	; (8001714 <FN_RM01_Play_Sound+0x58>)
 8001702:	7818      	ldrb	r0, [r3, #0]
 8001704:	4243      	negs	r3, r0
 8001706:	4158      	adcs	r0, r3
 8001708:	b005      	add	sp, #20
 800170a:	bd30      	pop	{r4, r5, pc}
 800170c:	0000077e 	.word	0x0000077e
 8001710:	20000570 	.word	0x20000570
 8001714:	20000498 	.word	0x20000498

08001718 <FN_RM01_Record_Sound>:
 8001718:	b570      	push	{r4, r5, r6, lr}
 800171a:	4b15      	ldr	r3, [pc, #84]	; (8001770 <FN_RM01_Record_Sound+0x58>)
 800171c:	b084      	sub	sp, #16
 800171e:	ac01      	add	r4, sp, #4
 8001720:	8023      	strh	r3, [r4, #0]
 8001722:	23d6      	movs	r3, #214	; 0xd6
 8001724:	70a3      	strb	r3, [r4, #2]
 8001726:	3b58      	subs	r3, #88	; 0x58
 8001728:	7223      	strb	r3, [r4, #8]
 800172a:	79e3      	ldrb	r3, [r4, #7]
 800172c:	7806      	ldrb	r6, [r0, #0]
 800172e:	3b23      	subs	r3, #35	; 0x23
 8001730:	7845      	ldrb	r5, [r0, #1]
 8001732:	b2db      	uxtb	r3, r3
 8001734:	7881      	ldrb	r1, [r0, #2]
 8001736:	199b      	adds	r3, r3, r6
 8001738:	78c2      	ldrb	r2, [r0, #3]
 800173a:	18eb      	adds	r3, r5, r3
 800173c:	7161      	strb	r1, [r4, #5]
 800173e:	18c9      	adds	r1, r1, r3
 8001740:	71a2      	strb	r2, [r4, #6]
 8001742:	1852      	adds	r2, r2, r1
 8001744:	71e2      	strb	r2, [r4, #7]
 8001746:	70e6      	strb	r6, [r4, #3]
 8001748:	7125      	strb	r5, [r4, #4]
 800174a:	f001 fe23 	bl	8003394 <clean_uart2_rx_data>
 800174e:	23fa      	movs	r3, #250	; 0xfa
 8001750:	2209      	movs	r2, #9
 8001752:	009b      	lsls	r3, r3, #2
 8001754:	0021      	movs	r1, r4
 8001756:	4807      	ldr	r0, [pc, #28]	; (8001774 <FN_RM01_Record_Sound+0x5c>)
 8001758:	f7ff fbfa 	bl	8000f50 <HAL_UART_Transmit>
 800175c:	20c8      	movs	r0, #200	; 0xc8
 800175e:	f7fe fe79 	bl	8000454 <HAL_Delay>
 8001762:	4b05      	ldr	r3, [pc, #20]	; (8001778 <FN_RM01_Record_Sound+0x60>)
 8001764:	7818      	ldrb	r0, [r3, #0]
 8001766:	4243      	negs	r3, r0
 8001768:	4158      	adcs	r0, r3
 800176a:	b004      	add	sp, #16
 800176c:	bd70      	pop	{r4, r5, r6, pc}
 800176e:	46c0      	nop			; (mov r8, r8)
 8001770:	0000077e 	.word	0x0000077e
 8001774:	20000570 	.word	0x20000570
 8001778:	20000498 	.word	0x20000498

0800177c <FN_RM01_Stop_Record>:
 800177c:	b500      	push	{lr}
 800177e:	4b0c      	ldr	r3, [pc, #48]	; (80017b0 <FN_RM01_Stop_Record+0x34>)
 8001780:	b083      	sub	sp, #12
 8001782:	466a      	mov	r2, sp
 8001784:	9300      	str	r3, [sp, #0]
 8001786:	237e      	movs	r3, #126	; 0x7e
 8001788:	7113      	strb	r3, [r2, #4]
 800178a:	f001 fe03 	bl	8003394 <clean_uart2_rx_data>
 800178e:	23fa      	movs	r3, #250	; 0xfa
 8001790:	2205      	movs	r2, #5
 8001792:	009b      	lsls	r3, r3, #2
 8001794:	4669      	mov	r1, sp
 8001796:	4807      	ldr	r0, [pc, #28]	; (80017b4 <FN_RM01_Stop_Record+0x38>)
 8001798:	f7ff fbda 	bl	8000f50 <HAL_UART_Transmit>
 800179c:	2064      	movs	r0, #100	; 0x64
 800179e:	f7fe fe59 	bl	8000454 <HAL_Delay>
 80017a2:	4b05      	ldr	r3, [pc, #20]	; (80017b8 <FN_RM01_Stop_Record+0x3c>)
 80017a4:	7818      	ldrb	r0, [r3, #0]
 80017a6:	4243      	negs	r3, r0
 80017a8:	4158      	adcs	r0, r3
 80017aa:	b003      	add	sp, #12
 80017ac:	bd00      	pop	{pc}
 80017ae:	46c0      	nop			; (mov r8, r8)
 80017b0:	dcd9037e 	.word	0xdcd9037e
 80017b4:	20000570 	.word	0x20000570
 80017b8:	20000498 	.word	0x20000498

080017bc <FN_RM01_Remove_Sound>:
 80017bc:	b570      	push	{r4, r5, r6, lr}
 80017be:	4b15      	ldr	r3, [pc, #84]	; (8001814 <FN_RM01_Remove_Sound+0x58>)
 80017c0:	b084      	sub	sp, #16
 80017c2:	ac01      	add	r4, sp, #4
 80017c4:	8023      	strh	r3, [r4, #0]
 80017c6:	23db      	movs	r3, #219	; 0xdb
 80017c8:	70a3      	strb	r3, [r4, #2]
 80017ca:	3b5d      	subs	r3, #93	; 0x5d
 80017cc:	7223      	strb	r3, [r4, #8]
 80017ce:	79e3      	ldrb	r3, [r4, #7]
 80017d0:	7806      	ldrb	r6, [r0, #0]
 80017d2:	3b1e      	subs	r3, #30
 80017d4:	7845      	ldrb	r5, [r0, #1]
 80017d6:	b2db      	uxtb	r3, r3
 80017d8:	7881      	ldrb	r1, [r0, #2]
 80017da:	199b      	adds	r3, r3, r6
 80017dc:	78c2      	ldrb	r2, [r0, #3]
 80017de:	18eb      	adds	r3, r5, r3
 80017e0:	7161      	strb	r1, [r4, #5]
 80017e2:	18c9      	adds	r1, r1, r3
 80017e4:	71a2      	strb	r2, [r4, #6]
 80017e6:	1852      	adds	r2, r2, r1
 80017e8:	71e2      	strb	r2, [r4, #7]
 80017ea:	70e6      	strb	r6, [r4, #3]
 80017ec:	7125      	strb	r5, [r4, #4]
 80017ee:	f001 fdd1 	bl	8003394 <clean_uart2_rx_data>
 80017f2:	23fa      	movs	r3, #250	; 0xfa
 80017f4:	2209      	movs	r2, #9
 80017f6:	009b      	lsls	r3, r3, #2
 80017f8:	0021      	movs	r1, r4
 80017fa:	4807      	ldr	r0, [pc, #28]	; (8001818 <FN_RM01_Remove_Sound+0x5c>)
 80017fc:	f7ff fba8 	bl	8000f50 <HAL_UART_Transmit>
 8001800:	2064      	movs	r0, #100	; 0x64
 8001802:	f7fe fe27 	bl	8000454 <HAL_Delay>
 8001806:	4b05      	ldr	r3, [pc, #20]	; (800181c <FN_RM01_Remove_Sound+0x60>)
 8001808:	7818      	ldrb	r0, [r3, #0]
 800180a:	4243      	negs	r3, r0
 800180c:	4158      	adcs	r0, r3
 800180e:	b004      	add	sp, #16
 8001810:	bd70      	pop	{r4, r5, r6, pc}
 8001812:	46c0      	nop			; (mov r8, r8)
 8001814:	0000077e 	.word	0x0000077e
 8001818:	20000570 	.word	0x20000570
 800181c:	20000498 	.word	0x20000498

08001820 <FN_RM01_Get_FileName>:
 8001820:	b570      	push	{r4, r5, r6, lr}
 8001822:	000c      	movs	r4, r1
 8001824:	21fa      	movs	r1, #250	; 0xfa
 8001826:	0089      	lsls	r1, r1, #2
 8001828:	0006      	movs	r6, r0
 800182a:	2530      	movs	r5, #48	; 0x30
 800182c:	f7fe fcf6 	bl	800021c <__divsi3>
 8001830:	4328      	orrs	r0, r5
 8001832:	7020      	strb	r0, [r4, #0]
 8001834:	2164      	movs	r1, #100	; 0x64
 8001836:	0030      	movs	r0, r6
 8001838:	f7fe fcf0 	bl	800021c <__divsi3>
 800183c:	210a      	movs	r1, #10
 800183e:	f7fe fdd3 	bl	80003e8 <__aeabi_idivmod>
 8001842:	4329      	orrs	r1, r5
 8001844:	7061      	strb	r1, [r4, #1]
 8001846:	0030      	movs	r0, r6
 8001848:	210a      	movs	r1, #10
 800184a:	f7fe fce7 	bl	800021c <__divsi3>
 800184e:	210a      	movs	r1, #10
 8001850:	f7fe fdca 	bl	80003e8 <__aeabi_idivmod>
 8001854:	4329      	orrs	r1, r5
 8001856:	70a1      	strb	r1, [r4, #2]
 8001858:	0030      	movs	r0, r6
 800185a:	210a      	movs	r1, #10
 800185c:	f7fe fdc4 	bl	80003e8 <__aeabi_idivmod>
 8001860:	430d      	orrs	r5, r1
 8001862:	70e5      	strb	r5, [r4, #3]
 8001864:	bd70      	pop	{r4, r5, r6, pc}
 8001866:	46c0      	nop			; (mov r8, r8)

08001868 <Mifare_Classic_Read>:
 8001868:	b5f0      	push	{r4, r5, r6, r7, lr}
 800186a:	46de      	mov	lr, fp
 800186c:	464e      	mov	r6, r9
 800186e:	4657      	mov	r7, sl
 8001870:	4645      	mov	r5, r8
 8001872:	b5e0      	push	{r5, r6, r7, lr}
 8001874:	0006      	movs	r6, r0
 8001876:	b08d      	sub	sp, #52	; 0x34
 8001878:	af00      	add	r7, sp, #0
 800187a:	f000 fde9 	bl	8002450 <PN532_WakeUp>
 800187e:	4bc6      	ldr	r3, [pc, #792]	; (8001b98 <Mifare_Classic_Read+0x330>)
 8001880:	2410      	movs	r4, #16
 8001882:	623b      	str	r3, [r7, #32]
 8001884:	4bc5      	ldr	r3, [pc, #788]	; (8001b9c <Mifare_Classic_Read+0x334>)
 8001886:	1938      	adds	r0, r7, r4
 8001888:	627b      	str	r3, [r7, #36]	; 0x24
 800188a:	4bc5      	ldr	r3, [pc, #788]	; (8001ba0 <Mifare_Classic_Read+0x338>)
 800188c:	853b      	strh	r3, [r7, #40]	; 0x28
 800188e:	1c73      	adds	r3, r6, #1
 8001890:	0019      	movs	r1, r3
 8001892:	4699      	mov	r9, r3
 8001894:	231a      	movs	r3, #26
 8001896:	7a32      	ldrb	r2, [r6, #8]
 8001898:	18c0      	adds	r0, r0, r3
 800189a:	f001 fe02 	bl	80034a2 <memcpy>
 800189e:	2310      	movs	r3, #16
 80018a0:	193a      	adds	r2, r7, r4
 80018a2:	210e      	movs	r1, #14
 80018a4:	18d0      	adds	r0, r2, r3
 80018a6:	f000 fdef 	bl	8002488 <PN532_WriteCommand>
 80018aa:	2800      	cmp	r0, #0
 80018ac:	d004      	beq.n	80018b8 <Mifare_Classic_Read+0x50>
 80018ae:	4bbd      	ldr	r3, [pc, #756]	; (8001ba4 <Mifare_Classic_Read+0x33c>)
 80018b0:	4698      	mov	r8, r3
 80018b2:	7b1b      	ldrb	r3, [r3, #12]
 80018b4:	2b41      	cmp	r3, #65	; 0x41
 80018b6:	d008      	beq.n	80018ca <Mifare_Classic_Read+0x62>
 80018b8:	2000      	movs	r0, #0
 80018ba:	46bd      	mov	sp, r7
 80018bc:	b00d      	add	sp, #52	; 0x34
 80018be:	bc3c      	pop	{r2, r3, r4, r5}
 80018c0:	4690      	mov	r8, r2
 80018c2:	4699      	mov	r9, r3
 80018c4:	46a2      	mov	sl, r4
 80018c6:	46ab      	mov	fp, r5
 80018c8:	bdf0      	pop	{r4, r5, r6, r7, pc}
 80018ca:	4643      	mov	r3, r8
 80018cc:	7b5b      	ldrb	r3, [r3, #13]
 80018ce:	2b00      	cmp	r3, #0
 80018d0:	d1f2      	bne.n	80018b8 <Mifare_Classic_Read+0x50>
 80018d2:	f001 fd4d 	bl	8003370 <clean_uart1_rx_data>
 80018d6:	4bb4      	ldr	r3, [pc, #720]	; (8001ba8 <Mifare_Classic_Read+0x340>)
 80018d8:	2104      	movs	r1, #4
 80018da:	613b      	str	r3, [r7, #16]
 80018dc:	2310      	movs	r3, #16
 80018de:	18f8      	adds	r0, r7, r3
 80018e0:	f000 fdd2 	bl	8002488 <PN532_WriteCommand>
 80018e4:	2800      	cmp	r0, #0
 80018e6:	d0e8      	beq.n	80018ba <Mifare_Classic_Read+0x52>
 80018e8:	4643      	mov	r3, r8
 80018ea:	7b1b      	ldrb	r3, [r3, #12]
 80018ec:	2b41      	cmp	r3, #65	; 0x41
 80018ee:	d103      	bne.n	80018f8 <Mifare_Classic_Read+0x90>
 80018f0:	4643      	mov	r3, r8
 80018f2:	7b5d      	ldrb	r5, [r3, #13]
 80018f4:	2d00      	cmp	r5, #0
 80018f6:	d003      	beq.n	8001900 <Mifare_Classic_Read+0x98>
 80018f8:	f001 fd3a 	bl	8003370 <clean_uart1_rx_data>
 80018fc:	2000      	movs	r0, #0
 80018fe:	e7dc      	b.n	80018ba <Mifare_Classic_Read+0x52>
 8001900:	2010      	movs	r0, #16
 8001902:	2310      	movs	r3, #16
 8001904:	4641      	mov	r1, r8
 8001906:	1838      	adds	r0, r7, r0
 8001908:	18c0      	adds	r0, r0, r3
 800190a:	310e      	adds	r1, #14
 800190c:	2210      	movs	r2, #16
 800190e:	f001 fdc8 	bl	80034a2 <memcpy>
 8001912:	f001 fd2d 	bl	8003370 <clean_uart1_rx_data>
 8001916:	2320      	movs	r3, #32
 8001918:	18fb      	adds	r3, r7, r3
 800191a:	781b      	ldrb	r3, [r3, #0]
 800191c:	2b00      	cmp	r3, #0
 800191e:	d100      	bne.n	8001922 <Mifare_Classic_Read+0xba>
 8001920:	e09d      	b.n	8001a5e <Mifare_Classic_Read+0x1f6>
 8001922:	2b03      	cmp	r3, #3
 8001924:	d1c8      	bne.n	80018b8 <Mifare_Classic_Read+0x50>
 8001926:	2300      	movs	r3, #0
 8001928:	2100      	movs	r1, #0
 800192a:	2010      	movs	r0, #16
 800192c:	4684      	mov	ip, r0
 800192e:	2211      	movs	r2, #17
 8001930:	44bc      	add	ip, r7
 8001932:	4462      	add	r2, ip
 8001934:	5c52      	ldrb	r2, [r2, r1]
 8001936:	b2db      	uxtb	r3, r3
 8001938:	1c98      	adds	r0, r3, #2
 800193a:	607a      	str	r2, [r7, #4]
 800193c:	6038      	str	r0, [r7, #0]
 800193e:	2aff      	cmp	r2, #255	; 0xff
 8001940:	d100      	bne.n	8001944 <Mifare_Classic_Read+0xdc>
 8001942:	e0f0      	b.n	8001b26 <Mifare_Classic_Read+0x2be>
 8001944:	687b      	ldr	r3, [r7, #4]
 8001946:	3303      	adds	r3, #3
 8001948:	071a      	lsls	r2, r3, #28
 800194a:	d002      	beq.n	8001952 <Mifare_Classic_Read+0xea>
 800194c:	111b      	asrs	r3, r3, #4
 800194e:	3301      	adds	r3, #1
 8001950:	011b      	lsls	r3, r3, #4
 8001952:	22ff      	movs	r2, #255	; 0xff
 8001954:	4669      	mov	r1, sp
 8001956:	401a      	ands	r2, r3
 8001958:	b2db      	uxtb	r3, r3
 800195a:	60fb      	str	r3, [r7, #12]
 800195c:	1dd3      	adds	r3, r2, #7
 800195e:	08db      	lsrs	r3, r3, #3
 8001960:	00db      	lsls	r3, r3, #3
 8001962:	1acb      	subs	r3, r1, r3
 8001964:	469d      	mov	sp, r3
 8001966:	2100      	movs	r1, #0
 8001968:	4668      	mov	r0, sp
 800196a:	60bb      	str	r3, [r7, #8]
 800196c:	f001 fda2 	bl	80034b4 <memset>
 8001970:	68fb      	ldr	r3, [r7, #12]
 8001972:	2b00      	cmp	r3, #0
 8001974:	d07f      	beq.n	8001a76 <Mifare_Classic_Read+0x20e>
 8001976:	23a0      	movs	r3, #160	; 0xa0
 8001978:	005b      	lsls	r3, r3, #1
 800197a:	2404      	movs	r4, #4
 800197c:	469b      	mov	fp, r3
 800197e:	46b2      	mov	sl, r6
 8001980:	e05e      	b.n	8001a40 <Mifare_Classic_Read+0x1d8>
 8001982:	2303      	movs	r3, #3
 8001984:	4023      	ands	r3, r4
 8001986:	425a      	negs	r2, r3
 8001988:	4153      	adcs	r3, r2
 800198a:	2b00      	cmp	r3, #0
 800198c:	d024      	beq.n	80019d8 <Mifare_Classic_Read+0x170>
 800198e:	465b      	mov	r3, fp
 8001990:	823b      	strh	r3, [r7, #16]
 8001992:	2360      	movs	r3, #96	; 0x60
 8001994:	74bb      	strb	r3, [r7, #18]
 8001996:	4b81      	ldr	r3, [pc, #516]	; (8001b9c <Mifare_Classic_Read+0x334>)
 8001998:	74fc      	strb	r4, [r7, #19]
 800199a:	617b      	str	r3, [r7, #20]
 800199c:	4b80      	ldr	r3, [pc, #512]	; (8001ba0 <Mifare_Classic_Read+0x338>)
 800199e:	2610      	movs	r6, #16
 80019a0:	833b      	strh	r3, [r7, #24]
 80019a2:	4653      	mov	r3, sl
 80019a4:	7a1a      	ldrb	r2, [r3, #8]
 80019a6:	230a      	movs	r3, #10
 80019a8:	19b8      	adds	r0, r7, r6
 80019aa:	4649      	mov	r1, r9
 80019ac:	18c0      	adds	r0, r0, r3
 80019ae:	f001 fd78 	bl	80034a2 <memcpy>
 80019b2:	210e      	movs	r1, #14
 80019b4:	19b8      	adds	r0, r7, r6
 80019b6:	f000 fd67 	bl	8002488 <PN532_WriteCommand>
 80019ba:	2800      	cmp	r0, #0
 80019bc:	d100      	bne.n	80019c0 <Mifare_Classic_Read+0x158>
 80019be:	e77b      	b.n	80018b8 <Mifare_Classic_Read+0x50>
 80019c0:	4643      	mov	r3, r8
 80019c2:	7b1b      	ldrb	r3, [r3, #12]
 80019c4:	2b41      	cmp	r3, #65	; 0x41
 80019c6:	d000      	beq.n	80019ca <Mifare_Classic_Read+0x162>
 80019c8:	e776      	b.n	80018b8 <Mifare_Classic_Read+0x50>
 80019ca:	4643      	mov	r3, r8
 80019cc:	7b5b      	ldrb	r3, [r3, #13]
 80019ce:	2b00      	cmp	r3, #0
 80019d0:	d000      	beq.n	80019d4 <Mifare_Classic_Read+0x16c>
 80019d2:	e771      	b.n	80018b8 <Mifare_Classic_Read+0x50>
 80019d4:	f001 fccc 	bl	8003370 <clean_uart1_rx_data>
 80019d8:	68bb      	ldr	r3, [r7, #8]
 80019da:	2104      	movs	r1, #4
 80019dc:	195e      	adds	r6, r3, r5
 80019de:	465b      	mov	r3, fp
 80019e0:	823b      	strh	r3, [r7, #16]
 80019e2:	2330      	movs	r3, #48	; 0x30
 80019e4:	74bb      	strb	r3, [r7, #18]
 80019e6:	3b20      	subs	r3, #32
 80019e8:	18f8      	adds	r0, r7, r3
 80019ea:	74fc      	strb	r4, [r7, #19]
 80019ec:	f000 fd4c 	bl	8002488 <PN532_WriteCommand>
 80019f0:	2800      	cmp	r0, #0
 80019f2:	d100      	bne.n	80019f6 <Mifare_Classic_Read+0x18e>
 80019f4:	e761      	b.n	80018ba <Mifare_Classic_Read+0x52>
 80019f6:	4643      	mov	r3, r8
 80019f8:	7b1b      	ldrb	r3, [r3, #12]
 80019fa:	2b41      	cmp	r3, #65	; 0x41
 80019fc:	d000      	beq.n	8001a00 <Mifare_Classic_Read+0x198>
 80019fe:	e77b      	b.n	80018f8 <Mifare_Classic_Read+0x90>
 8001a00:	4643      	mov	r3, r8
 8001a02:	7b5b      	ldrb	r3, [r3, #13]
 8001a04:	2b00      	cmp	r3, #0
 8001a06:	d000      	beq.n	8001a0a <Mifare_Classic_Read+0x1a2>
 8001a08:	e776      	b.n	80018f8 <Mifare_Classic_Read+0x90>
 8001a0a:	4641      	mov	r1, r8
 8001a0c:	2210      	movs	r2, #16
 8001a0e:	310e      	adds	r1, #14
 8001a10:	0030      	movs	r0, r6
 8001a12:	f001 fd46 	bl	80034a2 <memcpy>
 8001a16:	f001 fcab 	bl	8003370 <clean_uart1_rx_data>
 8001a1a:	1c62      	adds	r2, r4, #1
 8001a1c:	b2d2      	uxtb	r2, r2
 8001a1e:	3510      	adds	r5, #16
 8001a20:	b251      	sxtb	r1, r2
 8001a22:	b2ed      	uxtb	r5, r5
 8001a24:	1c53      	adds	r3, r2, #1
 8001a26:	2900      	cmp	r1, #0
 8001a28:	db14      	blt.n	8001a54 <Mifare_Classic_Read+0x1ec>
 8001a2a:	2103      	movs	r1, #3
 8001a2c:	400b      	ands	r3, r1
 8001a2e:	4259      	negs	r1, r3
 8001a30:	414b      	adcs	r3, r1
 8001a32:	2b00      	cmp	r3, #0
 8001a34:	d00c      	beq.n	8001a50 <Mifare_Classic_Read+0x1e8>
 8001a36:	3402      	adds	r4, #2
 8001a38:	b2e4      	uxtb	r4, r4
 8001a3a:	68fb      	ldr	r3, [r7, #12]
 8001a3c:	429d      	cmp	r5, r3
 8001a3e:	d219      	bcs.n	8001a74 <Mifare_Classic_Read+0x20c>
 8001a40:	b263      	sxtb	r3, r4
 8001a42:	2b00      	cmp	r3, #0
 8001a44:	da9d      	bge.n	8001982 <Mifare_Classic_Read+0x11a>
 8001a46:	230f      	movs	r3, #15
 8001a48:	4023      	ands	r3, r4
 8001a4a:	425a      	negs	r2, r3
 8001a4c:	4153      	adcs	r3, r2
 8001a4e:	e79c      	b.n	800198a <Mifare_Classic_Read+0x122>
 8001a50:	0014      	movs	r4, r2
 8001a52:	e7f2      	b.n	8001a3a <Mifare_Classic_Read+0x1d2>
 8001a54:	210f      	movs	r1, #15
 8001a56:	400b      	ands	r3, r1
 8001a58:	4259      	negs	r1, r3
 8001a5a:	414b      	adcs	r3, r1
 8001a5c:	e7e9      	b.n	8001a32 <Mifare_Classic_Read+0x1ca>
 8001a5e:	2321      	movs	r3, #33	; 0x21
 8001a60:	18fb      	adds	r3, r7, r3
 8001a62:	781b      	ldrb	r3, [r3, #0]
 8001a64:	2b00      	cmp	r3, #0
 8001a66:	d011      	beq.n	8001a8c <Mifare_Classic_Read+0x224>
 8001a68:	2b03      	cmp	r3, #3
 8001a6a:	d000      	beq.n	8001a6e <Mifare_Classic_Read+0x206>
 8001a6c:	e724      	b.n	80018b8 <Mifare_Classic_Read+0x50>
 8001a6e:	2301      	movs	r3, #1
 8001a70:	2101      	movs	r1, #1
 8001a72:	e75a      	b.n	800192a <Mifare_Classic_Read+0xc2>
 8001a74:	4656      	mov	r6, sl
 8001a76:	6839      	ldr	r1, [r7, #0]
 8001a78:	0032      	movs	r2, r6
 8001a7a:	468c      	mov	ip, r1
 8001a7c:	68bb      	ldr	r3, [r7, #8]
 8001a7e:	3209      	adds	r2, #9
 8001a80:	4463      	add	r3, ip
 8001a82:	0018      	movs	r0, r3
 8001a84:	6879      	ldr	r1, [r7, #4]
 8001a86:	f000 fb23 	bl	80020d0 <Get_NDEF_Message>
 8001a8a:	e716      	b.n	80018ba <Mifare_Classic_Read+0x52>
 8001a8c:	2322      	movs	r3, #34	; 0x22
 8001a8e:	18fb      	adds	r3, r7, r3
 8001a90:	781b      	ldrb	r3, [r3, #0]
 8001a92:	2b00      	cmp	r3, #0
 8001a94:	d005      	beq.n	8001aa2 <Mifare_Classic_Read+0x23a>
 8001a96:	2b03      	cmp	r3, #3
 8001a98:	d000      	beq.n	8001a9c <Mifare_Classic_Read+0x234>
 8001a9a:	e70d      	b.n	80018b8 <Mifare_Classic_Read+0x50>
 8001a9c:	2302      	movs	r3, #2
 8001a9e:	2102      	movs	r1, #2
 8001aa0:	e743      	b.n	800192a <Mifare_Classic_Read+0xc2>
 8001aa2:	2323      	movs	r3, #35	; 0x23
 8001aa4:	18fb      	adds	r3, r7, r3
 8001aa6:	781b      	ldrb	r3, [r3, #0]
 8001aa8:	2b00      	cmp	r3, #0
 8001aaa:	d005      	beq.n	8001ab8 <Mifare_Classic_Read+0x250>
 8001aac:	2b03      	cmp	r3, #3
 8001aae:	d000      	beq.n	8001ab2 <Mifare_Classic_Read+0x24a>
 8001ab0:	e702      	b.n	80018b8 <Mifare_Classic_Read+0x50>
 8001ab2:	2303      	movs	r3, #3
 8001ab4:	2103      	movs	r1, #3
 8001ab6:	e738      	b.n	800192a <Mifare_Classic_Read+0xc2>
 8001ab8:	2324      	movs	r3, #36	; 0x24
 8001aba:	18fb      	adds	r3, r7, r3
 8001abc:	781b      	ldrb	r3, [r3, #0]
 8001abe:	2b00      	cmp	r3, #0
 8001ac0:	d005      	beq.n	8001ace <Mifare_Classic_Read+0x266>
 8001ac2:	2b03      	cmp	r3, #3
 8001ac4:	d000      	beq.n	8001ac8 <Mifare_Classic_Read+0x260>
 8001ac6:	e6f7      	b.n	80018b8 <Mifare_Classic_Read+0x50>
 8001ac8:	2304      	movs	r3, #4
 8001aca:	2104      	movs	r1, #4
 8001acc:	e72d      	b.n	800192a <Mifare_Classic_Read+0xc2>
 8001ace:	2325      	movs	r3, #37	; 0x25
 8001ad0:	18fb      	adds	r3, r7, r3
 8001ad2:	781b      	ldrb	r3, [r3, #0]
 8001ad4:	2b00      	cmp	r3, #0
 8001ad6:	d005      	beq.n	8001ae4 <Mifare_Classic_Read+0x27c>
 8001ad8:	2b03      	cmp	r3, #3
 8001ada:	d000      	beq.n	8001ade <Mifare_Classic_Read+0x276>
 8001adc:	e6ec      	b.n	80018b8 <Mifare_Classic_Read+0x50>
 8001ade:	2305      	movs	r3, #5
 8001ae0:	2105      	movs	r1, #5
 8001ae2:	e722      	b.n	800192a <Mifare_Classic_Read+0xc2>
 8001ae4:	2326      	movs	r3, #38	; 0x26
 8001ae6:	18fb      	adds	r3, r7, r3
 8001ae8:	781b      	ldrb	r3, [r3, #0]
 8001aea:	2b00      	cmp	r3, #0
 8001aec:	d005      	beq.n	8001afa <Mifare_Classic_Read+0x292>
 8001aee:	2b03      	cmp	r3, #3
 8001af0:	d000      	beq.n	8001af4 <Mifare_Classic_Read+0x28c>
 8001af2:	e6e1      	b.n	80018b8 <Mifare_Classic_Read+0x50>
 8001af4:	2306      	movs	r3, #6
 8001af6:	2106      	movs	r1, #6
 8001af8:	e717      	b.n	800192a <Mifare_Classic_Read+0xc2>
 8001afa:	2327      	movs	r3, #39	; 0x27
 8001afc:	18fb      	adds	r3, r7, r3
 8001afe:	781b      	ldrb	r3, [r3, #0]
 8001b00:	2b00      	cmp	r3, #0
 8001b02:	d005      	beq.n	8001b10 <Mifare_Classic_Read+0x2a8>
 8001b04:	2b03      	cmp	r3, #3
 8001b06:	d000      	beq.n	8001b0a <Mifare_Classic_Read+0x2a2>
 8001b08:	e6d6      	b.n	80018b8 <Mifare_Classic_Read+0x50>
 8001b0a:	2307      	movs	r3, #7
 8001b0c:	2107      	movs	r1, #7
 8001b0e:	e70c      	b.n	800192a <Mifare_Classic_Read+0xc2>
 8001b10:	2328      	movs	r3, #40	; 0x28
 8001b12:	18fb      	adds	r3, r7, r3
 8001b14:	781b      	ldrb	r3, [r3, #0]
 8001b16:	2b00      	cmp	r3, #0
 8001b18:	d01c      	beq.n	8001b54 <Mifare_Classic_Read+0x2ec>
 8001b1a:	2b03      	cmp	r3, #3
 8001b1c:	d000      	beq.n	8001b20 <Mifare_Classic_Read+0x2b8>
 8001b1e:	e6cb      	b.n	80018b8 <Mifare_Classic_Read+0x50>
 8001b20:	2308      	movs	r3, #8
 8001b22:	2108      	movs	r1, #8
 8001b24:	e701      	b.n	800192a <Mifare_Classic_Read+0xc2>
 8001b26:	2010      	movs	r0, #16
 8001b28:	4684      	mov	ip, r0
 8001b2a:	3aec      	subs	r2, #236	; 0xec
 8001b2c:	44bc      	add	ip, r7
 8001b2e:	4462      	add	r2, ip
 8001b30:	5c52      	ldrb	r2, [r2, r1]
 8001b32:	3304      	adds	r3, #4
 8001b34:	607a      	str	r2, [r7, #4]
 8001b36:	603b      	str	r3, [r7, #0]
 8001b38:	2aff      	cmp	r2, #255	; 0xff
 8001b3a:	d000      	beq.n	8001b3e <Mifare_Classic_Read+0x2d6>
 8001b3c:	e702      	b.n	8001944 <Mifare_Classic_Read+0xdc>
 8001b3e:	b084      	sub	sp, #16
 8001b40:	466b      	mov	r3, sp
 8001b42:	2210      	movs	r2, #16
 8001b44:	2100      	movs	r1, #0
 8001b46:	4668      	mov	r0, sp
 8001b48:	60bb      	str	r3, [r7, #8]
 8001b4a:	f001 fcb3 	bl	80034b4 <memset>
 8001b4e:	2310      	movs	r3, #16
 8001b50:	60fb      	str	r3, [r7, #12]
 8001b52:	e710      	b.n	8001976 <Mifare_Classic_Read+0x10e>
 8001b54:	2329      	movs	r3, #41	; 0x29
 8001b56:	18fb      	adds	r3, r7, r3
 8001b58:	781b      	ldrb	r3, [r3, #0]
 8001b5a:	2b00      	cmp	r3, #0
 8001b5c:	d005      	beq.n	8001b6a <Mifare_Classic_Read+0x302>
 8001b5e:	2b03      	cmp	r3, #3
 8001b60:	d000      	beq.n	8001b64 <Mifare_Classic_Read+0x2fc>
 8001b62:	e6a9      	b.n	80018b8 <Mifare_Classic_Read+0x50>
 8001b64:	2309      	movs	r3, #9
 8001b66:	2109      	movs	r1, #9
 8001b68:	e6df      	b.n	800192a <Mifare_Classic_Read+0xc2>
 8001b6a:	232a      	movs	r3, #42	; 0x2a
 8001b6c:	18fb      	adds	r3, r7, r3
 8001b6e:	781b      	ldrb	r3, [r3, #0]
 8001b70:	2b00      	cmp	r3, #0
 8001b72:	d005      	beq.n	8001b80 <Mifare_Classic_Read+0x318>
 8001b74:	2b03      	cmp	r3, #3
 8001b76:	d000      	beq.n	8001b7a <Mifare_Classic_Read+0x312>
 8001b78:	e69e      	b.n	80018b8 <Mifare_Classic_Read+0x50>
 8001b7a:	230a      	movs	r3, #10
 8001b7c:	210a      	movs	r1, #10
 8001b7e:	e6d4      	b.n	800192a <Mifare_Classic_Read+0xc2>
 8001b80:	232b      	movs	r3, #43	; 0x2b
 8001b82:	18fb      	adds	r3, r7, r3
 8001b84:	781b      	ldrb	r3, [r3, #0]
 8001b86:	2b00      	cmp	r3, #0
 8001b88:	d010      	beq.n	8001bac <Mifare_Classic_Read+0x344>
 8001b8a:	2b03      	cmp	r3, #3
 8001b8c:	d000      	beq.n	8001b90 <Mifare_Classic_Read+0x328>
 8001b8e:	e693      	b.n	80018b8 <Mifare_Classic_Read+0x50>
 8001b90:	230b      	movs	r3, #11
 8001b92:	210b      	movs	r1, #11
 8001b94:	e6c9      	b.n	800192a <Mifare_Classic_Read+0xc2>
 8001b96:	46c0      	nop			; (mov r8, r8)
 8001b98:	04600140 	.word	0x04600140
 8001b9c:	f7d3f7d3 	.word	0xf7d3f7d3
 8001ba0:	fffff7d3 	.word	0xfffff7d3
 8001ba4:	2000053c 	.word	0x2000053c
 8001ba8:	04300140 	.word	0x04300140
 8001bac:	232c      	movs	r3, #44	; 0x2c
 8001bae:	18fb      	adds	r3, r7, r3
 8001bb0:	781b      	ldrb	r3, [r3, #0]
 8001bb2:	2b00      	cmp	r3, #0
 8001bb4:	d005      	beq.n	8001bc2 <Mifare_Classic_Read+0x35a>
 8001bb6:	2b03      	cmp	r3, #3
 8001bb8:	d000      	beq.n	8001bbc <Mifare_Classic_Read+0x354>
 8001bba:	e67d      	b.n	80018b8 <Mifare_Classic_Read+0x50>
 8001bbc:	230c      	movs	r3, #12
 8001bbe:	210c      	movs	r1, #12
 8001bc0:	e6b3      	b.n	800192a <Mifare_Classic_Read+0xc2>
 8001bc2:	232d      	movs	r3, #45	; 0x2d
 8001bc4:	18fb      	adds	r3, r7, r3
 8001bc6:	781b      	ldrb	r3, [r3, #0]
 8001bc8:	2b00      	cmp	r3, #0
 8001bca:	d005      	beq.n	8001bd8 <Mifare_Classic_Read+0x370>
 8001bcc:	2b03      	cmp	r3, #3
 8001bce:	d000      	beq.n	8001bd2 <Mifare_Classic_Read+0x36a>
 8001bd0:	e672      	b.n	80018b8 <Mifare_Classic_Read+0x50>
 8001bd2:	230d      	movs	r3, #13
 8001bd4:	210d      	movs	r1, #13
 8001bd6:	e6a8      	b.n	800192a <Mifare_Classic_Read+0xc2>
 8001bd8:	232e      	movs	r3, #46	; 0x2e
 8001bda:	18fb      	adds	r3, r7, r3
 8001bdc:	781b      	ldrb	r3, [r3, #0]
 8001bde:	2b00      	cmp	r3, #0
 8001be0:	d005      	beq.n	8001bee <Mifare_Classic_Read+0x386>
 8001be2:	2b03      	cmp	r3, #3
 8001be4:	d000      	beq.n	8001be8 <Mifare_Classic_Read+0x380>
 8001be6:	e667      	b.n	80018b8 <Mifare_Classic_Read+0x50>
 8001be8:	230e      	movs	r3, #14
 8001bea:	210e      	movs	r1, #14
 8001bec:	e69d      	b.n	800192a <Mifare_Classic_Read+0xc2>
 8001bee:	232f      	movs	r3, #47	; 0x2f
 8001bf0:	18fb      	adds	r3, r7, r3
 8001bf2:	781b      	ldrb	r3, [r3, #0]
 8001bf4:	2b03      	cmp	r3, #3
 8001bf6:	d000      	beq.n	8001bfa <Mifare_Classic_Read+0x392>
 8001bf8:	e65e      	b.n	80018b8 <Mifare_Classic_Read+0x50>
 8001bfa:	230f      	movs	r3, #15
 8001bfc:	210f      	movs	r1, #15
 8001bfe:	e694      	b.n	800192a <Mifare_Classic_Read+0xc2>

08001c00 <Mifare_Classic_Write>:
 8001c00:	b5f0      	push	{r4, r5, r6, r7, lr}
 8001c02:	46de      	mov	lr, fp
 8001c04:	4657      	mov	r7, sl
 8001c06:	464e      	mov	r6, r9
 8001c08:	4645      	mov	r5, r8
 8001c0a:	4681      	mov	r9, r0
 8001c0c:	b5e0      	push	{r5, r6, r7, lr}
 8001c0e:	464e      	mov	r6, r9
 8001c10:	b087      	sub	sp, #28
 8001c12:	af00      	add	r7, sp, #0
 8001c14:	3609      	adds	r6, #9
 8001c16:	f000 fc1b 	bl	8002450 <PN532_WakeUp>
 8001c1a:	0030      	movs	r0, r6
 8001c1c:	f000 faf2 	bl	8002204 <NDEF_Message_GetEncodeSize>
 8001c20:	24ff      	movs	r4, #255	; 0xff
 8001c22:	466a      	mov	r2, sp
 8001c24:	4004      	ands	r4, r0
 8001c26:	1de3      	adds	r3, r4, #7
 8001c28:	4698      	mov	r8, r3
 8001c2a:	08db      	lsrs	r3, r3, #3
 8001c2c:	00db      	lsls	r3, r3, #3
 8001c2e:	1ad3      	subs	r3, r2, r3
 8001c30:	469d      	mov	sp, r3
 8001c32:	b2c5      	uxtb	r5, r0
 8001c34:	2100      	movs	r1, #0
 8001c36:	0022      	movs	r2, r4
 8001c38:	4668      	mov	r0, sp
 8001c3a:	f001 fc3b 	bl	80034b4 <memset>
 8001c3e:	0031      	movs	r1, r6
 8001c40:	4668      	mov	r0, sp
 8001c42:	46ea      	mov	sl, sp
 8001c44:	f000 faf4 	bl	8002230 <NDEF_Message_Encode>
 8001c48:	2dff      	cmp	r5, #255	; 0xff
 8001c4a:	d100      	bne.n	8001c4e <Mifare_Classic_Write+0x4e>
 8001c4c:	e096      	b.n	8001d7c <Mifare_Classic_Write+0x17c>
 8001c4e:	1ce6      	adds	r6, r4, #3
 8001c50:	0733      	lsls	r3, r6, #28
 8001c52:	d100      	bne.n	8001c56 <Mifare_Classic_Write+0x56>
 8001c54:	e0b5      	b.n	8001dc2 <Mifare_Classic_Write+0x1c2>
 8001c56:	1136      	asrs	r6, r6, #4
 8001c58:	0136      	lsls	r6, r6, #4
 8001c5a:	3612      	adds	r6, #18
 8001c5c:	466a      	mov	r2, sp
 8001c5e:	b2f6      	uxtb	r6, r6
 8001c60:	1df3      	adds	r3, r6, #7
 8001c62:	08db      	lsrs	r3, r3, #3
 8001c64:	00db      	lsls	r3, r3, #3
 8001c66:	1ad3      	subs	r3, r2, r3
 8001c68:	469d      	mov	sp, r3
 8001c6a:	46e8      	mov	r8, sp
 8001c6c:	0032      	movs	r2, r6
 8001c6e:	2100      	movs	r1, #0
 8001c70:	4668      	mov	r0, sp
 8001c72:	f001 fc1f 	bl	80034b4 <memset>
 8001c76:	4642      	mov	r2, r8
 8001c78:	2303      	movs	r3, #3
 8001c7a:	70d5      	strb	r5, [r2, #3]
 8001c7c:	7093      	strb	r3, [r2, #2]
 8001c7e:	1d10      	adds	r0, r2, #4
 8001c80:	4651      	mov	r1, sl
 8001c82:	0022      	movs	r2, r4
 8001c84:	f001 fc0d 	bl	80034a2 <memcpy>
 8001c88:	23fe      	movs	r3, #254	; 0xfe
 8001c8a:	4444      	add	r4, r8
 8001c8c:	7163      	strb	r3, [r4, #5]
 8001c8e:	2e00      	cmp	r6, #0
 8001c90:	d063      	beq.n	8001d5a <Mifare_Classic_Write+0x15a>
 8001c92:	230f      	movs	r3, #15
 8001c94:	469a      	mov	sl, r3
 8001c96:	4b4e      	ldr	r3, [pc, #312]	; (8001dd0 <Mifare_Classic_Write+0x1d0>)
 8001c98:	2500      	movs	r5, #0
 8001c9a:	2404      	movs	r4, #4
 8001c9c:	469b      	mov	fp, r3
 8001c9e:	b263      	sxtb	r3, r4
 8001ca0:	2b00      	cmp	r3, #0
 8001ca2:	db5c      	blt.n	8001d5e <Mifare_Classic_Write+0x15e>
 8001ca4:	2303      	movs	r3, #3
 8001ca6:	4023      	ands	r3, r4
 8001ca8:	425a      	negs	r2, r3
 8001caa:	4153      	adcs	r3, r2
 8001cac:	2b00      	cmp	r3, #0
 8001cae:	d029      	beq.n	8001d04 <Mifare_Classic_Write+0x104>
 8001cb0:	23a0      	movs	r3, #160	; 0xa0
 8001cb2:	005b      	lsls	r3, r3, #1
 8001cb4:	80bb      	strh	r3, [r7, #4]
 8001cb6:	3be0      	subs	r3, #224	; 0xe0
 8001cb8:	71bb      	strb	r3, [r7, #6]
 8001cba:	4b46      	ldr	r3, [pc, #280]	; (8001dd4 <Mifare_Classic_Write+0x1d4>)
 8001cbc:	71fc      	strb	r4, [r7, #7]
 8001cbe:	60bb      	str	r3, [r7, #8]
 8001cc0:	4b45      	ldr	r3, [pc, #276]	; (8001dd8 <Mifare_Classic_Write+0x1d8>)
 8001cc2:	81bb      	strh	r3, [r7, #12]
 8001cc4:	464b      	mov	r3, r9
 8001cc6:	1c59      	adds	r1, r3, #1
 8001cc8:	7a1a      	ldrb	r2, [r3, #8]
 8001cca:	230e      	movs	r3, #14
 8001ccc:	18f8      	adds	r0, r7, r3
 8001cce:	f001 fbe8 	bl	80034a2 <memcpy>
 8001cd2:	210e      	movs	r1, #14
 8001cd4:	1d38      	adds	r0, r7, #4
 8001cd6:	f000 fbd7 	bl	8002488 <PN532_WriteCommand>
 8001cda:	2800      	cmp	r0, #0
 8001cdc:	d003      	beq.n	8001ce6 <Mifare_Classic_Write+0xe6>
 8001cde:	4b3c      	ldr	r3, [pc, #240]	; (8001dd0 <Mifare_Classic_Write+0x1d0>)
 8001ce0:	7b1b      	ldrb	r3, [r3, #12]
 8001ce2:	2b41      	cmp	r3, #65	; 0x41
 8001ce4:	d008      	beq.n	8001cf8 <Mifare_Classic_Write+0xf8>
 8001ce6:	2000      	movs	r0, #0
 8001ce8:	46bd      	mov	sp, r7
 8001cea:	b007      	add	sp, #28
 8001cec:	bc3c      	pop	{r2, r3, r4, r5}
 8001cee:	4690      	mov	r8, r2
 8001cf0:	4699      	mov	r9, r3
 8001cf2:	46a2      	mov	sl, r4
 8001cf4:	46ab      	mov	fp, r5
 8001cf6:	bdf0      	pop	{r4, r5, r6, r7, pc}
 8001cf8:	4b35      	ldr	r3, [pc, #212]	; (8001dd0 <Mifare_Classic_Write+0x1d0>)
 8001cfa:	7b5b      	ldrb	r3, [r3, #13]
 8001cfc:	2b00      	cmp	r3, #0
 8001cfe:	d1f2      	bne.n	8001ce6 <Mifare_Classic_Write+0xe6>
 8001d00:	f001 fb36 	bl	8003370 <clean_uart1_rx_data>
 8001d04:	23a0      	movs	r3, #160	; 0xa0
 8001d06:	005b      	lsls	r3, r3, #1
 8001d08:	80bb      	strh	r3, [r7, #4]
 8001d0a:	3ba0      	subs	r3, #160	; 0xa0
 8001d0c:	71bb      	strb	r3, [r7, #6]
 8001d0e:	4643      	mov	r3, r8
 8001d10:	1959      	adds	r1, r3, r5
 8001d12:	2308      	movs	r3, #8
 8001d14:	2210      	movs	r2, #16
 8001d16:	18f8      	adds	r0, r7, r3
 8001d18:	71fc      	strb	r4, [r7, #7]
 8001d1a:	f001 fbc2 	bl	80034a2 <memcpy>
 8001d1e:	2114      	movs	r1, #20
 8001d20:	1d38      	adds	r0, r7, #4
 8001d22:	f000 fbb1 	bl	8002488 <PN532_WriteCommand>
 8001d26:	2800      	cmp	r0, #0
 8001d28:	d003      	beq.n	8001d32 <Mifare_Classic_Write+0x132>
 8001d2a:	465b      	mov	r3, fp
 8001d2c:	7b5b      	ldrb	r3, [r3, #13]
 8001d2e:	2b00      	cmp	r3, #0
 8001d30:	d121      	bne.n	8001d76 <Mifare_Classic_Write+0x176>
 8001d32:	f001 fb1d 	bl	8003370 <clean_uart1_rx_data>
 8001d36:	1c63      	adds	r3, r4, #1
 8001d38:	b2db      	uxtb	r3, r3
 8001d3a:	3510      	adds	r5, #16
 8001d3c:	b259      	sxtb	r1, r3
 8001d3e:	b2ed      	uxtb	r5, r5
 8001d40:	1c5a      	adds	r2, r3, #1
 8001d42:	2900      	cmp	r1, #0
 8001d44:	db12      	blt.n	8001d6c <Mifare_Classic_Write+0x16c>
 8001d46:	2103      	movs	r1, #3
 8001d48:	400a      	ands	r2, r1
 8001d4a:	4251      	negs	r1, r2
 8001d4c:	414a      	adcs	r2, r1
 8001d4e:	2a00      	cmp	r2, #0
 8001d50:	d00a      	beq.n	8001d68 <Mifare_Classic_Write+0x168>
 8001d52:	3402      	adds	r4, #2
 8001d54:	b2e4      	uxtb	r4, r4
 8001d56:	42b5      	cmp	r5, r6
 8001d58:	d3a1      	bcc.n	8001c9e <Mifare_Classic_Write+0x9e>
 8001d5a:	2001      	movs	r0, #1
 8001d5c:	e7c4      	b.n	8001ce8 <Mifare_Classic_Write+0xe8>
 8001d5e:	4653      	mov	r3, sl
 8001d60:	4023      	ands	r3, r4
 8001d62:	425a      	negs	r2, r3
 8001d64:	4153      	adcs	r3, r2
 8001d66:	e7a1      	b.n	8001cac <Mifare_Classic_Write+0xac>
 8001d68:	001c      	movs	r4, r3
 8001d6a:	e7f4      	b.n	8001d56 <Mifare_Classic_Write+0x156>
 8001d6c:	4651      	mov	r1, sl
 8001d6e:	400a      	ands	r2, r1
 8001d70:	4251      	negs	r1, r2
 8001d72:	414a      	adcs	r2, r1
 8001d74:	e7eb      	b.n	8001d4e <Mifare_Classic_Write+0x14e>
 8001d76:	f001 fafb 	bl	8003370 <clean_uart1_rx_data>
 8001d7a:	e7b4      	b.n	8001ce6 <Mifare_Classic_Write+0xe6>
 8001d7c:	1d66      	adds	r6, r4, #5
 8001d7e:	0733      	lsls	r3, r6, #28
 8001d80:	d121      	bne.n	8001dc6 <Mifare_Classic_Write+0x1c6>
 8001d82:	4643      	mov	r3, r8
 8001d84:	b2de      	uxtb	r6, r3
 8001d86:	466a      	mov	r2, sp
 8001d88:	1df3      	adds	r3, r6, #7
 8001d8a:	08db      	lsrs	r3, r3, #3
 8001d8c:	00db      	lsls	r3, r3, #3
 8001d8e:	1ad3      	subs	r3, r2, r3
 8001d90:	469d      	mov	sp, r3
 8001d92:	46e8      	mov	r8, sp
 8001d94:	0032      	movs	r2, r6
 8001d96:	2100      	movs	r1, #0
 8001d98:	4668      	mov	r0, sp
 8001d9a:	f001 fb8b 	bl	80034b4 <memset>
 8001d9e:	4642      	mov	r2, r8
 8001da0:	2303      	movs	r3, #3
 8001da2:	7093      	strb	r3, [r2, #2]
 8001da4:	33fc      	adds	r3, #252	; 0xfc
 8001da6:	70d3      	strb	r3, [r2, #3]
 8001da8:	4641      	mov	r1, r8
 8001daa:	2200      	movs	r2, #0
 8001dac:	714b      	strb	r3, [r1, #5]
 8001dae:	710a      	strb	r2, [r1, #4]
 8001db0:	1d88      	adds	r0, r1, #6
 8001db2:	0022      	movs	r2, r4
 8001db4:	4651      	mov	r1, sl
 8001db6:	f001 fb74 	bl	80034a2 <memcpy>
 8001dba:	23fe      	movs	r3, #254	; 0xfe
 8001dbc:	4444      	add	r4, r8
 8001dbe:	71e3      	strb	r3, [r4, #7]
 8001dc0:	e765      	b.n	8001c8e <Mifare_Classic_Write+0x8e>
 8001dc2:	1d66      	adds	r6, r4, #5
 8001dc4:	e74a      	b.n	8001c5c <Mifare_Classic_Write+0x5c>
 8001dc6:	1136      	asrs	r6, r6, #4
 8001dc8:	0136      	lsls	r6, r6, #4
 8001dca:	3612      	adds	r6, #18
 8001dcc:	b2f6      	uxtb	r6, r6
 8001dce:	e7da      	b.n	8001d86 <Mifare_Classic_Write+0x186>
 8001dd0:	2000053c 	.word	0x2000053c
 8001dd4:	f7d3f7d3 	.word	0xf7d3f7d3
 8001dd8:	fffff7d3 	.word	0xfffff7d3

08001ddc <Mifare_Ultralight_Read>:
 8001ddc:	b5f0      	push	{r4, r5, r6, r7, lr}
 8001dde:	4657      	mov	r7, sl
 8001de0:	46de      	mov	lr, fp
 8001de2:	464e      	mov	r6, r9
 8001de4:	4645      	mov	r5, r8
 8001de6:	b5e0      	push	{r5, r6, r7, lr}
 8001de8:	4b62      	ldr	r3, [pc, #392]	; (8001f74 <Mifare_Ultralight_Read+0x198>)
 8001dea:	b087      	sub	sp, #28
 8001dec:	af00      	add	r7, sp, #0
 8001dee:	60fb      	str	r3, [r7, #12]
 8001df0:	230c      	movs	r3, #12
 8001df2:	6038      	str	r0, [r7, #0]
 8001df4:	2104      	movs	r1, #4
 8001df6:	18f8      	adds	r0, r7, r3
 8001df8:	f000 fb46 	bl	8002488 <PN532_WriteCommand>
 8001dfc:	2800      	cmp	r0, #0
 8001dfe:	d004      	beq.n	8001e0a <Mifare_Ultralight_Read+0x2e>
 8001e00:	4b5d      	ldr	r3, [pc, #372]	; (8001f78 <Mifare_Ultralight_Read+0x19c>)
 8001e02:	7b1a      	ldrb	r2, [r3, #12]
 8001e04:	2a41      	cmp	r2, #65	; 0x41
 8001e06:	d100      	bne.n	8001e0a <Mifare_Ultralight_Read+0x2e>
 8001e08:	e081      	b.n	8001f0e <Mifare_Ultralight_Read+0x132>
 8001e0a:	f001 fab1 	bl	8003370 <clean_uart1_rx_data>
 8001e0e:	230c      	movs	r3, #12
 8001e10:	18fe      	adds	r6, r7, r3
 8001e12:	3302      	adds	r3, #2
 8001e14:	4698      	mov	r8, r3
 8001e16:	3b09      	subs	r3, #9
 8001e18:	2504      	movs	r5, #4
 8001e1a:	4699      	mov	r9, r3
 8001e1c:	4c56      	ldr	r4, [pc, #344]	; (8001f78 <Mifare_Ultralight_Read+0x19c>)
 8001e1e:	44a0      	add	r8, r4
 8001e20:	23a0      	movs	r3, #160	; 0xa0
 8001e22:	005b      	lsls	r3, r3, #1
 8001e24:	813b      	strh	r3, [r7, #8]
 8001e26:	3b11      	subs	r3, #17
 8001e28:	3bff      	subs	r3, #255	; 0xff
 8001e2a:	72bb      	strb	r3, [r7, #10]
 8001e2c:	3b28      	subs	r3, #40	; 0x28
 8001e2e:	2104      	movs	r1, #4
 8001e30:	18f8      	adds	r0, r7, r3
 8001e32:	72fd      	strb	r5, [r7, #11]
 8001e34:	f000 fb28 	bl	8002488 <PN532_WriteCommand>
 8001e38:	2800      	cmp	r0, #0
 8001e3a:	d003      	beq.n	8001e44 <Mifare_Ultralight_Read+0x68>
 8001e3c:	7b23      	ldrb	r3, [r4, #12]
 8001e3e:	2b41      	cmp	r3, #65	; 0x41
 8001e40:	d100      	bne.n	8001e44 <Mifare_Ultralight_Read+0x68>
 8001e42:	e06f      	b.n	8001f24 <Mifare_Ultralight_Read+0x148>
 8001e44:	f001 fa94 	bl	8003370 <clean_uart1_rx_data>
 8001e48:	4b4c      	ldr	r3, [pc, #304]	; (8001f7c <Mifare_Ultralight_Read+0x1a0>)
 8001e4a:	4e4d      	ldr	r6, [pc, #308]	; (8001f80 <Mifare_Ultralight_Read+0x1a4>)
 8001e4c:	4698      	mov	r8, r3
 8001e4e:	8832      	ldrh	r2, [r6, #0]
 8001e50:	881b      	ldrh	r3, [r3, #0]
 8001e52:	189b      	adds	r3, r3, r2
 8001e54:	3301      	adds	r3, #1
 8001e56:	b29b      	uxth	r3, r3
 8001e58:	079a      	lsls	r2, r3, #30
 8001e5a:	d003      	beq.n	8001e64 <Mifare_Ultralight_Read+0x88>
 8001e5c:	089b      	lsrs	r3, r3, #2
 8001e5e:	3301      	adds	r3, #1
 8001e60:	009b      	lsls	r3, r3, #2
 8001e62:	b29b      	uxth	r3, r3
 8001e64:	4a47      	ldr	r2, [pc, #284]	; (8001f84 <Mifare_Ultralight_Read+0x1a8>)
 8001e66:	2404      	movs	r4, #4
 8001e68:	8013      	strh	r3, [r2, #0]
 8001e6a:	466a      	mov	r2, sp
 8001e6c:	3307      	adds	r3, #7
 8001e6e:	08db      	lsrs	r3, r3, #3
 8001e70:	00db      	lsls	r3, r3, #3
 8001e72:	1ad3      	subs	r3, r2, r3
 8001e74:	469d      	mov	sp, r3
 8001e76:	607b      	str	r3, [r7, #4]
 8001e78:	23a0      	movs	r3, #160	; 0xa0
 8001e7a:	005b      	lsls	r3, r3, #1
 8001e7c:	469b      	mov	fp, r3
 8001e7e:	4b3e      	ldr	r3, [pc, #248]	; (8001f78 <Mifare_Ultralight_Read+0x19c>)
 8001e80:	466d      	mov	r5, sp
 8001e82:	469a      	mov	sl, r3
 8001e84:	46b1      	mov	r9, r6
 8001e86:	687b      	ldr	r3, [r7, #4]
 8001e88:	2104      	movs	r1, #4
 8001e8a:	1aee      	subs	r6, r5, r3
 8001e8c:	465b      	mov	r3, fp
 8001e8e:	81bb      	strh	r3, [r7, #12]
 8001e90:	2330      	movs	r3, #48	; 0x30
 8001e92:	73bb      	strb	r3, [r7, #14]
 8001e94:	3b24      	subs	r3, #36	; 0x24
 8001e96:	18f8      	adds	r0, r7, r3
 8001e98:	73fc      	strb	r4, [r7, #15]
 8001e9a:	f000 faf5 	bl	8002488 <PN532_WriteCommand>
 8001e9e:	2800      	cmp	r0, #0
 8001ea0:	d003      	beq.n	8001eaa <Mifare_Ultralight_Read+0xce>
 8001ea2:	4653      	mov	r3, sl
 8001ea4:	7b1b      	ldrb	r3, [r3, #12]
 8001ea6:	2b41      	cmp	r3, #65	; 0x41
 8001ea8:	d018      	beq.n	8001edc <Mifare_Ultralight_Read+0x100>
 8001eaa:	464e      	mov	r6, r9
 8001eac:	f001 fa60 	bl	8003370 <clean_uart1_rx_data>
 8001eb0:	2300      	movs	r3, #0
 8001eb2:	4642      	mov	r2, r8
 8001eb4:	2100      	movs	r1, #0
 8001eb6:	8830      	ldrh	r0, [r6, #0]
 8001eb8:	8013      	strh	r3, [r2, #0]
 8001eba:	687b      	ldr	r3, [r7, #4]
 8001ebc:	683a      	ldr	r2, [r7, #0]
 8001ebe:	469c      	mov	ip, r3
 8001ec0:	3209      	adds	r2, #9
 8001ec2:	4460      	add	r0, ip
 8001ec4:	f000 f904 	bl	80020d0 <Get_NDEF_Message>
 8001ec8:	46bd      	mov	sp, r7
 8001eca:	1e43      	subs	r3, r0, #1
 8001ecc:	4198      	sbcs	r0, r3
 8001ece:	b007      	add	sp, #28
 8001ed0:	bc3c      	pop	{r2, r3, r4, r5}
 8001ed2:	4690      	mov	r8, r2
 8001ed4:	4699      	mov	r9, r3
 8001ed6:	46a2      	mov	sl, r4
 8001ed8:	46ab      	mov	fp, r5
 8001eda:	bdf0      	pop	{r4, r5, r6, r7, pc}
 8001edc:	4653      	mov	r3, sl
 8001ede:	7b5b      	ldrb	r3, [r3, #13]
 8001ee0:	2b00      	cmp	r3, #0
 8001ee2:	d1e2      	bne.n	8001eaa <Mifare_Ultralight_Read+0xce>
 8001ee4:	4928      	ldr	r1, [pc, #160]	; (8001f88 <Mifare_Ultralight_Read+0x1ac>)
 8001ee6:	2204      	movs	r2, #4
 8001ee8:	0028      	movs	r0, r5
 8001eea:	f001 fada 	bl	80034a2 <memcpy>
 8001eee:	f001 fa3f 	bl	8003370 <clean_uart1_rx_data>
 8001ef2:	4643      	mov	r3, r8
 8001ef4:	8819      	ldrh	r1, [r3, #0]
 8001ef6:	464b      	mov	r3, r9
 8001ef8:	8818      	ldrh	r0, [r3, #0]
 8001efa:	180b      	adds	r3, r1, r0
 8001efc:	42b3      	cmp	r3, r6
 8001efe:	dd04      	ble.n	8001f0a <Mifare_Ultralight_Read+0x12e>
 8001f00:	3401      	adds	r4, #1
 8001f02:	b2e4      	uxtb	r4, r4
 8001f04:	3504      	adds	r5, #4
 8001f06:	2c3f      	cmp	r4, #63	; 0x3f
 8001f08:	d1bd      	bne.n	8001e86 <Mifare_Ultralight_Read+0xaa>
 8001f0a:	b2c9      	uxtb	r1, r1
 8001f0c:	e7d5      	b.n	8001eba <Mifare_Ultralight_Read+0xde>
 8001f0e:	7b5a      	ldrb	r2, [r3, #13]
 8001f10:	2a00      	cmp	r2, #0
 8001f12:	d000      	beq.n	8001f16 <Mifare_Ultralight_Read+0x13a>
 8001f14:	e779      	b.n	8001e0a <Mifare_Ultralight_Read+0x2e>
 8001f16:	7c1c      	ldrb	r4, [r3, #16]
 8001f18:	f001 fa2a 	bl	8003370 <clean_uart1_rx_data>
 8001f1c:	4b1b      	ldr	r3, [pc, #108]	; (8001f8c <Mifare_Ultralight_Read+0x1b0>)
 8001f1e:	00e4      	lsls	r4, r4, #3
 8001f20:	801c      	strh	r4, [r3, #0]
 8001f22:	e774      	b.n	8001e0e <Mifare_Ultralight_Read+0x32>
 8001f24:	7b63      	ldrb	r3, [r4, #13]
 8001f26:	2b00      	cmp	r3, #0
 8001f28:	d000      	beq.n	8001f2c <Mifare_Ultralight_Read+0x150>
 8001f2a:	e78b      	b.n	8001e44 <Mifare_Ultralight_Read+0x68>
 8001f2c:	2204      	movs	r2, #4
 8001f2e:	4641      	mov	r1, r8
 8001f30:	0030      	movs	r0, r6
 8001f32:	f001 fab6 	bl	80034a2 <memcpy>
 8001f36:	3604      	adds	r6, #4
 8001f38:	f001 fa1a 	bl	8003370 <clean_uart1_rx_data>
 8001f3c:	2d05      	cmp	r5, #5
 8001f3e:	d116      	bne.n	8001f6e <Mifare_Ultralight_Read+0x192>
 8001f40:	7b3b      	ldrb	r3, [r7, #12]
 8001f42:	2b03      	cmp	r3, #3
 8001f44:	d00b      	beq.n	8001f5e <Mifare_Ultralight_Read+0x182>
 8001f46:	7c7b      	ldrb	r3, [r7, #17]
 8001f48:	2b03      	cmp	r3, #3
 8001f4a:	d000      	beq.n	8001f4e <Mifare_Ultralight_Read+0x172>
 8001f4c:	e77c      	b.n	8001e48 <Mifare_Ultralight_Read+0x6c>
 8001f4e:	4a0b      	ldr	r2, [pc, #44]	; (8001f7c <Mifare_Ultralight_Read+0x1a0>)
 8001f50:	7cbb      	ldrb	r3, [r7, #18]
 8001f52:	4690      	mov	r8, r2
 8001f54:	8013      	strh	r3, [r2, #0]
 8001f56:	2207      	movs	r2, #7
 8001f58:	4e09      	ldr	r6, [pc, #36]	; (8001f80 <Mifare_Ultralight_Read+0x1a4>)
 8001f5a:	8032      	strh	r2, [r6, #0]
 8001f5c:	e779      	b.n	8001e52 <Mifare_Ultralight_Read+0x76>
 8001f5e:	4a07      	ldr	r2, [pc, #28]	; (8001f7c <Mifare_Ultralight_Read+0x1a0>)
 8001f60:	7b7b      	ldrb	r3, [r7, #13]
 8001f62:	4690      	mov	r8, r2
 8001f64:	8013      	strh	r3, [r2, #0]
 8001f66:	2202      	movs	r2, #2
 8001f68:	4e05      	ldr	r6, [pc, #20]	; (8001f80 <Mifare_Ultralight_Read+0x1a4>)
 8001f6a:	8032      	strh	r2, [r6, #0]
 8001f6c:	e771      	b.n	8001e52 <Mifare_Ultralight_Read+0x76>
 8001f6e:	464d      	mov	r5, r9
 8001f70:	e756      	b.n	8001e20 <Mifare_Ultralight_Read+0x44>
 8001f72:	46c0      	nop			; (mov r8, r8)
 8001f74:	03300140 	.word	0x03300140
 8001f78:	2000053c 	.word	0x2000053c
 8001f7c:	2000002c 	.word	0x2000002c
 8001f80:	2000002e 	.word	0x2000002e
 8001f84:	20000028 	.word	0x20000028
 8001f88:	2000054a 	.word	0x2000054a
 8001f8c:	2000002a 	.word	0x2000002a

08001f90 <Mifare_Ultralight_Write>:
 8001f90:	b5f0      	push	{r4, r5, r6, r7, lr}
 8001f92:	464f      	mov	r7, r9
 8001f94:	46d6      	mov	lr, sl
 8001f96:	4646      	mov	r6, r8
 8001f98:	b5c0      	push	{r6, r7, lr}
 8001f9a:	b082      	sub	sp, #8
 8001f9c:	af00      	add	r7, sp, #0
 8001f9e:	4b46      	ldr	r3, [pc, #280]	; (80020b8 <Mifare_Ultralight_Write+0x128>)
 8001fa0:	0004      	movs	r4, r0
 8001fa2:	2104      	movs	r1, #4
 8001fa4:	0038      	movs	r0, r7
 8001fa6:	603b      	str	r3, [r7, #0]
 8001fa8:	f000 fa6e 	bl	8002488 <PN532_WriteCommand>
 8001fac:	2800      	cmp	r0, #0
 8001fae:	d004      	beq.n	8001fba <Mifare_Ultralight_Write+0x2a>
 8001fb0:	4b42      	ldr	r3, [pc, #264]	; (80020bc <Mifare_Ultralight_Write+0x12c>)
 8001fb2:	7b1a      	ldrb	r2, [r3, #12]
 8001fb4:	2a41      	cmp	r2, #65	; 0x41
 8001fb6:	d100      	bne.n	8001fba <Mifare_Ultralight_Write+0x2a>
 8001fb8:	e072      	b.n	80020a0 <Mifare_Ultralight_Write+0x110>
 8001fba:	f001 f9d9 	bl	8003370 <clean_uart1_rx_data>
 8001fbe:	4d40      	ldr	r5, [pc, #256]	; (80020c0 <Mifare_Ultralight_Write+0x130>)
 8001fc0:	3409      	adds	r4, #9
 8001fc2:	0020      	movs	r0, r4
 8001fc4:	f000 f91e 	bl	8002204 <NDEF_Message_GetEncodeSize>
 8001fc8:	b282      	uxth	r2, r0
 8001fca:	0001      	movs	r1, r0
 8001fcc:	20fe      	movs	r0, #254	; 0xfe
 8001fce:	2302      	movs	r3, #2
 8001fd0:	4290      	cmp	r0, r2
 8001fd2:	4180      	sbcs	r0, r0
 8001fd4:	4003      	ands	r3, r0
 8001fd6:	483b      	ldr	r0, [pc, #236]	; (80020c4 <Mifare_Ultralight_Write+0x134>)
 8001fd8:	3302      	adds	r3, #2
 8001fda:	8003      	strh	r3, [r0, #0]
 8001fdc:	4680      	mov	r8, r0
 8001fde:	1c50      	adds	r0, r2, #1
 8001fe0:	4e39      	ldr	r6, [pc, #228]	; (80020c8 <Mifare_Ultralight_Write+0x138>)
 8001fe2:	181b      	adds	r3, r3, r0
 8001fe4:	b29b      	uxth	r3, r3
 8001fe6:	8032      	strh	r2, [r6, #0]
 8001fe8:	0798      	lsls	r0, r3, #30
 8001fea:	d003      	beq.n	8001ff4 <Mifare_Ultralight_Write+0x64>
 8001fec:	089b      	lsrs	r3, r3, #2
 8001fee:	3301      	adds	r3, #1
 8001ff0:	009b      	lsls	r3, r3, #2
 8001ff2:	b29b      	uxth	r3, r3
 8001ff4:	4835      	ldr	r0, [pc, #212]	; (80020cc <Mifare_Ultralight_Write+0x13c>)
 8001ff6:	882d      	ldrh	r5, [r5, #0]
 8001ff8:	4681      	mov	r9, r0
 8001ffa:	8003      	strh	r3, [r0, #0]
 8001ffc:	2000      	movs	r0, #0
 8001ffe:	429d      	cmp	r5, r3
 8002000:	d342      	bcc.n	8002088 <Mifare_Ultralight_Write+0xf8>
 8002002:	4668      	mov	r0, sp
 8002004:	3307      	adds	r3, #7
 8002006:	08db      	lsrs	r3, r3, #3
 8002008:	00db      	lsls	r3, r3, #3
 800200a:	1ac3      	subs	r3, r0, r3
 800200c:	469d      	mov	sp, r3
 800200e:	2303      	movs	r3, #3
 8002010:	466d      	mov	r5, sp
 8002012:	b2c9      	uxtb	r1, r1
 8002014:	702b      	strb	r3, [r5, #0]
 8002016:	2afe      	cmp	r2, #254	; 0xfe
 8002018:	d83d      	bhi.n	8002096 <Mifare_Ultralight_Write+0x106>
 800201a:	7069      	strb	r1, [r5, #1]
 800201c:	1ca8      	adds	r0, r5, #2
 800201e:	0021      	movs	r1, r4
 8002020:	f000 f906 	bl	8002230 <NDEF_Message_Encode>
 8002024:	4643      	mov	r3, r8
 8002026:	881c      	ldrh	r4, [r3, #0]
 8002028:	464b      	mov	r3, r9
 800202a:	8836      	ldrh	r6, [r6, #0]
 800202c:	881b      	ldrh	r3, [r3, #0]
 800202e:	19a0      	adds	r0, r4, r6
 8002030:	1b1a      	subs	r2, r3, r4
 8002032:	1b92      	subs	r2, r2, r6
 8002034:	1828      	adds	r0, r5, r0
 8002036:	2100      	movs	r1, #0
 8002038:	4698      	mov	r8, r3
 800203a:	f001 fa3b 	bl	80034b4 <memset>
 800203e:	23fe      	movs	r3, #254	; 0xfe
 8002040:	192c      	adds	r4, r5, r4
 8002042:	55a3      	strb	r3, [r4, r6]
 8002044:	4643      	mov	r3, r8
 8002046:	2b00      	cmp	r3, #0
 8002048:	d01d      	beq.n	8002086 <Mifare_Ultralight_Write+0xf6>
 800204a:	22a0      	movs	r2, #160	; 0xa0
 800204c:	0052      	lsls	r2, r2, #1
 800204e:	4692      	mov	sl, r2
 8002050:	3a9e      	subs	r2, #158	; 0x9e
 8002052:	2400      	movs	r4, #0
 8002054:	2304      	movs	r3, #4
 8002056:	4690      	mov	r8, r2
 8002058:	4652      	mov	r2, sl
 800205a:	803a      	strh	r2, [r7, #0]
 800205c:	4642      	mov	r2, r8
 800205e:	1929      	adds	r1, r5, r4
 8002060:	70ba      	strb	r2, [r7, #2]
 8002062:	1d38      	adds	r0, r7, #4
 8002064:	2204      	movs	r2, #4
 8002066:	1c5e      	adds	r6, r3, #1
 8002068:	70fb      	strb	r3, [r7, #3]
 800206a:	f001 fa1a 	bl	80034a2 <memcpy>
 800206e:	2108      	movs	r1, #8
 8002070:	0038      	movs	r0, r7
 8002072:	f000 fa09 	bl	8002488 <PN532_WriteCommand>
 8002076:	464a      	mov	r2, r9
 8002078:	3404      	adds	r4, #4
 800207a:	8812      	ldrh	r2, [r2, #0]
 800207c:	b2f6      	uxtb	r6, r6
 800207e:	b2e4      	uxtb	r4, r4
 8002080:	0033      	movs	r3, r6
 8002082:	42a2      	cmp	r2, r4
 8002084:	d8e8      	bhi.n	8002058 <Mifare_Ultralight_Write+0xc8>
 8002086:	2001      	movs	r0, #1
 8002088:	46bd      	mov	sp, r7
 800208a:	b002      	add	sp, #8
 800208c:	bc1c      	pop	{r2, r3, r4}
 800208e:	4690      	mov	r8, r2
 8002090:	4699      	mov	r9, r3
 8002092:	46a2      	mov	sl, r4
 8002094:	bdf0      	pop	{r4, r5, r6, r7, pc}
 8002096:	0a12      	lsrs	r2, r2, #8
 8002098:	70e9      	strb	r1, [r5, #3]
 800209a:	70aa      	strb	r2, [r5, #2]
 800209c:	21ff      	movs	r1, #255	; 0xff
 800209e:	e7bc      	b.n	800201a <Mifare_Ultralight_Write+0x8a>
 80020a0:	7b5a      	ldrb	r2, [r3, #13]
 80020a2:	2a00      	cmp	r2, #0
 80020a4:	d000      	beq.n	80020a8 <Mifare_Ultralight_Write+0x118>
 80020a6:	e788      	b.n	8001fba <Mifare_Ultralight_Write+0x2a>
 80020a8:	7c1e      	ldrb	r6, [r3, #16]
 80020aa:	f001 f961 	bl	8003370 <clean_uart1_rx_data>
 80020ae:	4d04      	ldr	r5, [pc, #16]	; (80020c0 <Mifare_Ultralight_Write+0x130>)
 80020b0:	00f6      	lsls	r6, r6, #3
 80020b2:	802e      	strh	r6, [r5, #0]
 80020b4:	e784      	b.n	8001fc0 <Mifare_Ultralight_Write+0x30>
 80020b6:	46c0      	nop			; (mov r8, r8)
 80020b8:	03300140 	.word	0x03300140
 80020bc:	2000053c 	.word	0x2000053c
 80020c0:	2000002a 	.word	0x2000002a
 80020c4:	2000002e 	.word	0x2000002e
 80020c8:	2000002c 	.word	0x2000002c
 80020cc:	20000028 	.word	0x20000028

080020d0 <Get_NDEF_Message>:
 80020d0:	b5f0      	push	{r4, r5, r6, r7, lr}
 80020d2:	46de      	mov	lr, fp
 80020d4:	4645      	mov	r5, r8
 80020d6:	464e      	mov	r6, r9
 80020d8:	4657      	mov	r7, sl
 80020da:	4691      	mov	r9, r2
 80020dc:	b5e0      	push	{r5, r6, r7, lr}
 80020de:	4680      	mov	r8, r0
 80020e0:	b083      	sub	sp, #12
 80020e2:	1c50      	adds	r0, r2, #1
 80020e4:	9101      	str	r1, [sp, #4]
 80020e6:	f000 f8bf 	bl	8002268 <NDEF_Record_Init>
 80020ea:	4648      	mov	r0, r9
 80020ec:	3016      	adds	r0, #22
 80020ee:	30ff      	adds	r0, #255	; 0xff
 80020f0:	f000 f8ba 	bl	8002268 <NDEF_Record_Init>
 80020f4:	4841      	ldr	r0, [pc, #260]	; (80021fc <Get_NDEF_Message+0x12c>)
 80020f6:	4645      	mov	r5, r8
 80020f8:	4448      	add	r0, r9
 80020fa:	f000 f8b5 	bl	8002268 <NDEF_Record_Init>
 80020fe:	4840      	ldr	r0, [pc, #256]	; (8002200 <Get_NDEF_Message+0x130>)
 8002100:	4448      	add	r0, r9
 8002102:	f000 f8b1 	bl	8002268 <NDEF_Record_Init>
 8002106:	2300      	movs	r3, #0
 8002108:	464a      	mov	r2, r9
 800210a:	2100      	movs	r1, #0
 800210c:	7013      	strb	r3, [r2, #0]
 800210e:	3340      	adds	r3, #64	; 0x40
 8002110:	469b      	mov	fp, r3
 8002112:	0008      	movs	r0, r1
 8002114:	e035      	b.n	8002182 <Get_NDEF_Message+0xb2>
 8002116:	7801      	ldrb	r1, [r0, #0]
 8002118:	3302      	adds	r3, #2
 800211a:	b2dc      	uxtb	r4, r3
 800211c:	4688      	mov	r8, r1
 800211e:	1928      	adds	r0, r5, r4
 8002120:	0031      	movs	r1, r6
 8002122:	f000 f8bb 	bl	800229c <NDEF_Record_SetType>
 8002126:	464b      	mov	r3, r9
 8002128:	781b      	ldrb	r3, [r3, #0]
 800212a:	1936      	adds	r6, r6, r4
 800212c:	011a      	lsls	r2, r3, #4
 800212e:	18d2      	adds	r2, r2, r3
 8002130:	0092      	lsls	r2, r2, #2
 8002132:	18d2      	adds	r2, r2, r3
 8002134:	0092      	lsls	r2, r2, #2
 8002136:	b2f6      	uxtb	r6, r6
 8002138:	3201      	adds	r2, #1
 800213a:	19a8      	adds	r0, r5, r6
 800213c:	444a      	add	r2, r9
 800213e:	4641      	mov	r1, r8
 8002140:	f000 f8b8 	bl	80022b4 <NDEF_Record_SetId>
 8002144:	4446      	add	r6, r8
 8002146:	b2f6      	uxtb	r6, r6
 8002148:	464b      	mov	r3, r9
 800214a:	781b      	ldrb	r3, [r3, #0]
 800214c:	b2ff      	uxtb	r7, r7
 800214e:	011a      	lsls	r2, r3, #4
 8002150:	18d2      	adds	r2, r2, r3
 8002152:	0092      	lsls	r2, r2, #2
 8002154:	18d2      	adds	r2, r2, r3
 8002156:	0092      	lsls	r2, r2, #2
 8002158:	3201      	adds	r2, #1
 800215a:	444a      	add	r2, r9
 800215c:	19a8      	adds	r0, r5, r6
 800215e:	0039      	movs	r1, r7
 8002160:	f000 f8b4 	bl	80022cc <NDEF_Record_SetPayload>
 8002164:	464b      	mov	r3, r9
 8002166:	781a      	ldrb	r2, [r3, #0]
 8002168:	19bf      	adds	r7, r7, r6
 800216a:	b2f8      	uxtb	r0, r7
 800216c:	2a03      	cmp	r2, #3
 800216e:	d842      	bhi.n	80021f6 <Get_NDEF_Message+0x126>
 8002170:	3201      	adds	r2, #1
 8002172:	b2d1      	uxtb	r1, r2
 8002174:	7019      	strb	r1, [r3, #0]
 8002176:	4653      	mov	r3, sl
 8002178:	2b00      	cmp	r3, #0
 800217a:	d134      	bne.n	80021e6 <Get_NDEF_Message+0x116>
 800217c:	9b01      	ldr	r3, [sp, #4]
 800217e:	4283      	cmp	r3, r0
 8002180:	d331      	bcc.n	80021e6 <Get_NDEF_Message+0x116>
 8002182:	465b      	mov	r3, fp
 8002184:	5c2a      	ldrb	r2, [r5, r0]
 8002186:	2410      	movs	r4, #16
 8002188:	4013      	ands	r3, r2
 800218a:	469a      	mov	sl, r3
 800218c:	2308      	movs	r3, #8
 800218e:	4013      	ands	r3, r2
 8002190:	469c      	mov	ip, r3
 8002192:	1c43      	adds	r3, r0, #1
 8002194:	b2db      	uxtb	r3, r3
 8002196:	5cee      	ldrb	r6, [r5, r3]
 8002198:	1c83      	adds	r3, r0, #2
 800219a:	b2db      	uxtb	r3, r3
 800219c:	5cef      	ldrb	r7, [r5, r3]
 800219e:	4214      	tst	r4, r2
 80021a0:	d10e      	bne.n	80021c0 <Get_NDEF_Message+0xf0>
 80021a2:	1cc2      	adds	r2, r0, #3
 80021a4:	b2d2      	uxtb	r2, r2
 80021a6:	5caa      	ldrb	r2, [r5, r2]
 80021a8:	1d43      	adds	r3, r0, #5
 80021aa:	0412      	lsls	r2, r2, #16
 80021ac:	b2db      	uxtb	r3, r3
 80021ae:	063f      	lsls	r7, r7, #24
 80021b0:	4317      	orrs	r7, r2
 80021b2:	3004      	adds	r0, #4
 80021b4:	5cea      	ldrb	r2, [r5, r3]
 80021b6:	b2c0      	uxtb	r0, r0
 80021b8:	433a      	orrs	r2, r7
 80021ba:	5c2f      	ldrb	r7, [r5, r0]
 80021bc:	023f      	lsls	r7, r7, #8
 80021be:	4317      	orrs	r7, r2
 80021c0:	010a      	lsls	r2, r1, #4
 80021c2:	1852      	adds	r2, r2, r1
 80021c4:	0092      	lsls	r2, r2, #2
 80021c6:	1852      	adds	r2, r2, r1
 80021c8:	4661      	mov	r1, ip
 80021ca:	1c5c      	adds	r4, r3, #1
 80021cc:	0092      	lsls	r2, r2, #2
 80021ce:	b2e4      	uxtb	r4, r4
 80021d0:	3201      	adds	r2, #1
 80021d2:	1928      	adds	r0, r5, r4
 80021d4:	444a      	add	r2, r9
 80021d6:	2900      	cmp	r1, #0
 80021d8:	d19d      	bne.n	8002116 <Get_NDEF_Message+0x46>
 80021da:	0031      	movs	r1, r6
 80021dc:	1936      	adds	r6, r6, r4
 80021de:	f000 f85d 	bl	800229c <NDEF_Record_SetType>
 80021e2:	b2f6      	uxtb	r6, r6
 80021e4:	e7b0      	b.n	8002148 <Get_NDEF_Message+0x78>
 80021e6:	2001      	movs	r0, #1
 80021e8:	b003      	add	sp, #12
 80021ea:	bc3c      	pop	{r2, r3, r4, r5}
 80021ec:	4690      	mov	r8, r2
 80021ee:	4699      	mov	r9, r3
 80021f0:	46a2      	mov	sl, r4
 80021f2:	46ab      	mov	fp, r5
 80021f4:	bdf0      	pop	{r4, r5, r6, r7, pc}
 80021f6:	2000      	movs	r0, #0
 80021f8:	e7f6      	b.n	80021e8 <Get_NDEF_Message+0x118>
 80021fa:	46c0      	nop			; (mov r8, r8)
 80021fc:	00000229 	.word	0x00000229
 8002200:	0000033d 	.word	0x0000033d

08002204 <NDEF_Message_GetEncodeSize>:
 8002204:	b5f8      	push	{r3, r4, r5, r6, r7, lr}
 8002206:	7803      	ldrb	r3, [r0, #0]
 8002208:	0007      	movs	r7, r0
 800220a:	2b00      	cmp	r3, #0
 800220c:	d00e      	beq.n	800222c <NDEF_Message_GetEncodeSize+0x28>
 800220e:	2400      	movs	r4, #0
 8002210:	2600      	movs	r6, #0
 8002212:	1c45      	adds	r5, r0, #1
 8002214:	0028      	movs	r0, r5
 8002216:	f000 f865 	bl	80022e4 <NDEF_Record_GetEncodedSize>
 800221a:	783b      	ldrb	r3, [r7, #0]
 800221c:	3515      	adds	r5, #21
 800221e:	3401      	adds	r4, #1
 8002220:	1836      	adds	r6, r6, r0
 8002222:	35ff      	adds	r5, #255	; 0xff
 8002224:	42a3      	cmp	r3, r4
 8002226:	dcf5      	bgt.n	8002214 <NDEF_Message_GetEncodeSize+0x10>
 8002228:	0030      	movs	r0, r6
 800222a:	bdf8      	pop	{r3, r4, r5, r6, r7, pc}
 800222c:	2600      	movs	r6, #0
 800222e:	e7fb      	b.n	8002228 <NDEF_Message_GetEncodeSize+0x24>

08002230 <NDEF_Message_Encode>:
 8002230:	780a      	ldrb	r2, [r1, #0]
 8002232:	b5f8      	push	{r3, r4, r5, r6, r7, lr}
 8002234:	0006      	movs	r6, r0
 8002236:	000f      	movs	r7, r1
 8002238:	2a00      	cmp	r2, #0
 800223a:	d014      	beq.n	8002266 <NDEF_Message_Encode+0x36>
 800223c:	2400      	movs	r4, #0
 800223e:	1c4d      	adds	r5, r1, #1
 8002240:	4261      	negs	r1, r4
 8002242:	4161      	adcs	r1, r4
 8002244:	3401      	adds	r4, #1
 8002246:	1aa2      	subs	r2, r4, r2
 8002248:	4253      	negs	r3, r2
 800224a:	415a      	adcs	r2, r3
 800224c:	0030      	movs	r0, r6
 800224e:	002b      	movs	r3, r5
 8002250:	f000 f854 	bl	80022fc <NDEF_Record_Encode>
 8002254:	0028      	movs	r0, r5
 8002256:	f000 f845 	bl	80022e4 <NDEF_Record_GetEncodedSize>
 800225a:	783a      	ldrb	r2, [r7, #0]
 800225c:	3515      	adds	r5, #21
 800225e:	1836      	adds	r6, r6, r0
 8002260:	35ff      	adds	r5, #255	; 0xff
 8002262:	4294      	cmp	r4, r2
 8002264:	dbec      	blt.n	8002240 <NDEF_Message_Encode+0x10>
 8002266:	bdf8      	pop	{r3, r4, r5, r6, r7, pc}

08002268 <NDEF_Record_Init>:
 8002268:	2300      	movs	r3, #0
 800226a:	b510      	push	{r4, lr}
 800226c:	0004      	movs	r4, r0
 800226e:	7003      	strb	r3, [r0, #0]
 8002270:	7043      	strb	r3, [r0, #1]
 8002272:	70c3      	strb	r3, [r0, #3]
 8002274:	7083      	strb	r3, [r0, #2]
 8002276:	2208      	movs	r2, #8
 8002278:	2100      	movs	r1, #0
 800227a:	3004      	adds	r0, #4
 800227c:	f001 f91a 	bl	80034b4 <memset>
 8002280:	0020      	movs	r0, r4
 8002282:	2208      	movs	r2, #8
 8002284:	2100      	movs	r1, #0
 8002286:	300c      	adds	r0, #12
 8002288:	f001 f914 	bl	80034b4 <memset>
 800228c:	0020      	movs	r0, r4
 800228e:	2280      	movs	r2, #128	; 0x80
 8002290:	2100      	movs	r1, #0
 8002292:	0052      	lsls	r2, r2, #1
 8002294:	3014      	adds	r0, #20
 8002296:	f001 f90d 	bl	80034b4 <memset>
 800229a:	bd10      	pop	{r4, pc}

0800229c <NDEF_Record_SetType>:
 800229c:	b570      	push	{r4, r5, r6, lr}
 800229e:	000d      	movs	r5, r1
 80022a0:	0014      	movs	r4, r2
 80022a2:	1d13      	adds	r3, r2, #4
 80022a4:	000a      	movs	r2, r1
 80022a6:	0001      	movs	r1, r0
 80022a8:	0018      	movs	r0, r3
 80022aa:	f001 f8fa 	bl	80034a2 <memcpy>
 80022ae:	7065      	strb	r5, [r4, #1]
 80022b0:	bd70      	pop	{r4, r5, r6, pc}
 80022b2:	46c0      	nop			; (mov r8, r8)

080022b4 <NDEF_Record_SetId>:
 80022b4:	0013      	movs	r3, r2
 80022b6:	b570      	push	{r4, r5, r6, lr}
 80022b8:	000d      	movs	r5, r1
 80022ba:	0014      	movs	r4, r2
 80022bc:	330c      	adds	r3, #12
 80022be:	000a      	movs	r2, r1
 80022c0:	0001      	movs	r1, r0
 80022c2:	0018      	movs	r0, r3
 80022c4:	f001 f8ed 	bl	80034a2 <memcpy>
 80022c8:	70e5      	strb	r5, [r4, #3]
 80022ca:	bd70      	pop	{r4, r5, r6, pc}

080022cc <NDEF_Record_SetPayload>:
 80022cc:	0013      	movs	r3, r2
 80022ce:	b570      	push	{r4, r5, r6, lr}
 80022d0:	000d      	movs	r5, r1
 80022d2:	0014      	movs	r4, r2
 80022d4:	3314      	adds	r3, #20
 80022d6:	000a      	movs	r2, r1
 80022d8:	0001      	movs	r1, r0
 80022da:	0018      	movs	r0, r3
 80022dc:	f001 f8e1 	bl	80034a2 <memcpy>
 80022e0:	70a5      	strb	r5, [r4, #2]
 80022e2:	bd70      	pop	{r4, r5, r6, pc}

080022e4 <NDEF_Record_GetEncodedSize>:
 80022e4:	78c2      	ldrb	r2, [r0, #3]
 80022e6:	0013      	movs	r3, r2
 80022e8:	1e59      	subs	r1, r3, #1
 80022ea:	418b      	sbcs	r3, r1
 80022ec:	7841      	ldrb	r1, [r0, #1]
 80022ee:	7880      	ldrb	r0, [r0, #2]
 80022f0:	1852      	adds	r2, r2, r1
 80022f2:	3303      	adds	r3, #3
 80022f4:	1810      	adds	r0, r2, r0
 80022f6:	1818      	adds	r0, r3, r0
 80022f8:	b2c0      	uxtb	r0, r0
 80022fa:	4770      	bx	lr

080022fc <NDEF_Record_Encode>:
 80022fc:	b570      	push	{r4, r5, r6, lr}
 80022fe:	001c      	movs	r4, r3
 8002300:	781b      	ldrb	r3, [r3, #0]
 8002302:	2900      	cmp	r1, #0
 8002304:	d001      	beq.n	800230a <NDEF_Record_Encode+0xe>
 8002306:	2180      	movs	r1, #128	; 0x80
 8002308:	430b      	orrs	r3, r1
 800230a:	2a00      	cmp	r2, #0
 800230c:	d001      	beq.n	8002312 <NDEF_Record_Encode+0x16>
 800230e:	2240      	movs	r2, #64	; 0x40
 8002310:	4313      	orrs	r3, r2
 8002312:	78e2      	ldrb	r2, [r4, #3]
 8002314:	2a00      	cmp	r2, #0
 8002316:	d123      	bne.n	8002360 <NDEF_Record_Encode+0x64>
 8002318:	2210      	movs	r2, #16
 800231a:	4313      	orrs	r3, r2
 800231c:	7003      	strb	r3, [r0, #0]
 800231e:	7863      	ldrb	r3, [r4, #1]
 8002320:	1cc5      	adds	r5, r0, #3
 8002322:	7043      	strb	r3, [r0, #1]
 8002324:	78a3      	ldrb	r3, [r4, #2]
 8002326:	7083      	strb	r3, [r0, #2]
 8002328:	78e3      	ldrb	r3, [r4, #3]
 800232a:	2b00      	cmp	r3, #0
 800232c:	d001      	beq.n	8002332 <NDEF_Record_Encode+0x36>
 800232e:	70c3      	strb	r3, [r0, #3]
 8002330:	1d05      	adds	r5, r0, #4
 8002332:	7862      	ldrb	r2, [r4, #1]
 8002334:	1d21      	adds	r1, r4, #4
 8002336:	0028      	movs	r0, r5
 8002338:	f001 f8b3 	bl	80034a2 <memcpy>
 800233c:	0021      	movs	r1, r4
 800233e:	7860      	ldrb	r0, [r4, #1]
 8002340:	78a2      	ldrb	r2, [r4, #2]
 8002342:	182d      	adds	r5, r5, r0
 8002344:	3114      	adds	r1, #20
 8002346:	0028      	movs	r0, r5
 8002348:	f001 f8ab 	bl	80034a2 <memcpy>
 800234c:	78e2      	ldrb	r2, [r4, #3]
 800234e:	2a00      	cmp	r2, #0
 8002350:	d005      	beq.n	800235e <NDEF_Record_Encode+0x62>
 8002352:	0021      	movs	r1, r4
 8002354:	78a0      	ldrb	r0, [r4, #2]
 8002356:	310c      	adds	r1, #12
 8002358:	1828      	adds	r0, r5, r0
 800235a:	f001 f8a2 	bl	80034a2 <memcpy>
 800235e:	bd70      	pop	{r4, r5, r6, pc}
 8002360:	2218      	movs	r2, #24
 8002362:	4313      	orrs	r3, r2
 8002364:	e7da      	b.n	800231c <NDEF_Record_Encode+0x20>
 8002366:	46c0      	nop			; (mov r8, r8)

08002368 <NDEF_Record_Create_TextRecord>:
 8002368:	b5f8      	push	{r3, r4, r5, r6, r7, lr}
 800236a:	46ce      	mov	lr, r9
 800236c:	4647      	mov	r7, r8
 800236e:	2300      	movs	r3, #0
 8002370:	0014      	movs	r4, r2
 8002372:	b580      	push	{r7, lr}
 8002374:	000e      	movs	r6, r1
 8002376:	af00      	add	r7, sp, #0
 8002378:	4681      	mov	r9, r0
 800237a:	70d3      	strb	r3, [r2, #3]
 800237c:	7093      	strb	r3, [r2, #2]
 800237e:	1d10      	adds	r0, r2, #4
 8002380:	2100      	movs	r1, #0
 8002382:	2208      	movs	r2, #8
 8002384:	f001 f896 	bl	80034b4 <memset>
 8002388:	0020      	movs	r0, r4
 800238a:	2208      	movs	r2, #8
 800238c:	2100      	movs	r1, #0
 800238e:	300c      	adds	r0, #12
 8002390:	f001 f890 	bl	80034b4 <memset>
 8002394:	2314      	movs	r3, #20
 8002396:	4698      	mov	r8, r3
 8002398:	2280      	movs	r2, #128	; 0x80
 800239a:	44a0      	add	r8, r4
 800239c:	4640      	mov	r0, r8
 800239e:	0052      	lsls	r2, r2, #1
 80023a0:	2100      	movs	r1, #0
 80023a2:	f001 f887 	bl	80034b4 <memset>
 80023a6:	2301      	movs	r3, #1
 80023a8:	2254      	movs	r2, #84	; 0x54
 80023aa:	7023      	strb	r3, [r4, #0]
 80023ac:	7063      	strb	r3, [r4, #1]
 80023ae:	0033      	movs	r3, r6
 80023b0:	7122      	strb	r2, [r4, #4]
 80023b2:	466a      	mov	r2, sp
 80023b4:	330a      	adds	r3, #10
 80023b6:	08db      	lsrs	r3, r3, #3
 80023b8:	00db      	lsls	r3, r3, #3
 80023ba:	1ad3      	subs	r3, r2, r3
 80023bc:	2202      	movs	r2, #2
 80023be:	469d      	mov	sp, r3
 80023c0:	701a      	strb	r2, [r3, #0]
 80023c2:	1c58      	adds	r0, r3, #1
 80023c4:	490a      	ldr	r1, [pc, #40]	; (80023f0 <NDEF_Record_Create_TextRecord+0x88>)
 80023c6:	f001 f86c 	bl	80034a2 <memcpy>
 80023ca:	466b      	mov	r3, sp
 80023cc:	1cf5      	adds	r5, r6, #3
 80023ce:	0032      	movs	r2, r6
 80023d0:	4649      	mov	r1, r9
 80023d2:	b2ed      	uxtb	r5, r5
 80023d4:	1cd8      	adds	r0, r3, #3
 80023d6:	f001 f864 	bl	80034a2 <memcpy>
 80023da:	002a      	movs	r2, r5
 80023dc:	4669      	mov	r1, sp
 80023de:	4640      	mov	r0, r8
 80023e0:	f001 f85f 	bl	80034a2 <memcpy>
 80023e4:	46bd      	mov	sp, r7
 80023e6:	70a5      	strb	r5, [r4, #2]
 80023e8:	bc0c      	pop	{r2, r3}
 80023ea:	4690      	mov	r8, r2
 80023ec:	4699      	mov	r9, r3
 80023ee:	bdf8      	pop	{r3, r4, r5, r6, r7, pc}
 80023f0:	08003510 	.word	0x08003510

080023f4 <NFC_Clear_Tag>:
 80023f4:	b570      	push	{r4, r5, r6, lr}
 80023f6:	2400      	movs	r4, #0
 80023f8:	0006      	movs	r6, r0
 80023fa:	7004      	strb	r4, [r0, #0]
 80023fc:	7204      	strb	r4, [r0, #8]
 80023fe:	2207      	movs	r2, #7
 8002400:	3001      	adds	r0, #1
 8002402:	2100      	movs	r1, #0
 8002404:	f001 f856 	bl	80034b4 <memset>
 8002408:	4b10      	ldr	r3, [pc, #64]	; (800244c <NFC_Clear_Tag+0x58>)
 800240a:	7274      	strb	r4, [r6, #9]
 800240c:	469c      	mov	ip, r3
 800240e:	0034      	movs	r4, r6
 8002410:	2500      	movs	r5, #0
 8002412:	340a      	adds	r4, #10
 8002414:	4466      	add	r6, ip
 8002416:	7025      	strb	r5, [r4, #0]
 8002418:	7065      	strb	r5, [r4, #1]
 800241a:	70a5      	strb	r5, [r4, #2]
 800241c:	70e5      	strb	r5, [r4, #3]
 800241e:	1d20      	adds	r0, r4, #4
 8002420:	2208      	movs	r2, #8
 8002422:	2100      	movs	r1, #0
 8002424:	f001 f846 	bl	80034b4 <memset>
 8002428:	0020      	movs	r0, r4
 800242a:	2208      	movs	r2, #8
 800242c:	2100      	movs	r1, #0
 800242e:	300c      	adds	r0, #12
 8002430:	f001 f840 	bl	80034b4 <memset>
 8002434:	0020      	movs	r0, r4
 8002436:	2280      	movs	r2, #128	; 0x80
 8002438:	3415      	adds	r4, #21
 800243a:	3014      	adds	r0, #20
 800243c:	0052      	lsls	r2, r2, #1
 800243e:	2100      	movs	r1, #0
 8002440:	34ff      	adds	r4, #255	; 0xff
 8002442:	f001 f837 	bl	80034b4 <memset>
 8002446:	42a6      	cmp	r6, r4
 8002448:	d1e5      	bne.n	8002416 <NFC_Clear_Tag+0x22>
 800244a:	bd70      	pop	{r4, r5, r6, pc}
 800244c:	0000045a 	.word	0x0000045a

08002450 <PN532_WakeUp>:
 8002450:	b510      	push	{r4, lr}
 8002452:	4b0a      	ldr	r3, [pc, #40]	; (800247c <PN532_WakeUp+0x2c>)
 8002454:	b082      	sub	sp, #8
 8002456:	681a      	ldr	r2, [r3, #0]
 8002458:	4c09      	ldr	r4, [pc, #36]	; (8002480 <PN532_WakeUp+0x30>)
 800245a:	9200      	str	r2, [sp, #0]
 800245c:	466a      	mov	r2, sp
 800245e:	889b      	ldrh	r3, [r3, #4]
 8002460:	4669      	mov	r1, sp
 8002462:	8093      	strh	r3, [r2, #4]
 8002464:	0020      	movs	r0, r4
 8002466:	2206      	movs	r2, #6
 8002468:	4b06      	ldr	r3, [pc, #24]	; (8002484 <PN532_WakeUp+0x34>)
 800246a:	f7fe fd71 	bl	8000f50 <HAL_UART_Transmit>
 800246e:	2280      	movs	r2, #128	; 0x80
 8002470:	6821      	ldr	r1, [r4, #0]
 8002472:	69cb      	ldr	r3, [r1, #28]
 8002474:	421a      	tst	r2, r3
 8002476:	d0fc      	beq.n	8002472 <PN532_WakeUp+0x22>
 8002478:	b002      	add	sp, #8
 800247a:	bd10      	pop	{r4, pc}
 800247c:	080034fc 	.word	0x080034fc
 8002480:	200004cc 	.word	0x200004cc
 8002484:	0000ffff 	.word	0x0000ffff

08002488 <PN532_WriteCommand>:
 8002488:	b5f0      	push	{r4, r5, r6, r7, lr}
 800248a:	46de      	mov	lr, fp
 800248c:	4657      	mov	r7, sl
 800248e:	464e      	mov	r6, r9
 8002490:	4645      	mov	r5, r8
 8002492:	2300      	movs	r3, #0
 8002494:	b5e0      	push	{r5, r6, r7, lr}
 8002496:	b0a1      	sub	sp, #132	; 0x84
 8002498:	ac07      	add	r4, sp, #28
 800249a:	aa04      	add	r2, sp, #16
 800249c:	70d3      	strb	r3, [r2, #3]
 800249e:	8023      	strh	r3, [r4, #0]
 80024a0:	33ff      	adds	r3, #255	; 0xff
 80024a2:	70a3      	strb	r3, [r4, #2]
 80024a4:	1c4b      	adds	r3, r1, #1
 80024a6:	70e3      	strb	r3, [r4, #3]
 80024a8:	43cb      	mvns	r3, r1
 80024aa:	7123      	strb	r3, [r4, #4]
 80024ac:	23d4      	movs	r3, #212	; 0xd4
 80024ae:	7163      	strb	r3, [r4, #5]
 80024b0:	ab04      	add	r3, sp, #16
 80024b2:	469c      	mov	ip, r3
 80024b4:	000f      	movs	r7, r1
 80024b6:	000a      	movs	r2, r1
 80024b8:	0001      	movs	r1, r0
 80024ba:	2012      	movs	r0, #18
 80024bc:	4460      	add	r0, ip
 80024be:	f000 fff0 	bl	80034a2 <memcpy>
 80024c2:	1dbb      	adds	r3, r7, #6
 80024c4:	b2db      	uxtb	r3, r3
 80024c6:	9302      	str	r3, [sp, #8]
 80024c8:	2f08      	cmp	r7, #8
 80024ca:	d800      	bhi.n	80024ce <PN532_WriteCommand+0x46>
 80024cc:	e18f      	b.n	80027ee <PN532_WriteCommand+0x366>
 80024ce:	79a3      	ldrb	r3, [r4, #6]
 80024d0:	79e2      	ldrb	r2, [r4, #7]
 80024d2:	3b2c      	subs	r3, #44	; 0x2c
 80024d4:	189b      	adds	r3, r3, r2
 80024d6:	b2db      	uxtb	r3, r3
 80024d8:	9303      	str	r3, [sp, #12]
 80024da:	1ebb      	subs	r3, r7, #2
 80024dc:	469b      	mov	fp, r3
 80024de:	089b      	lsrs	r3, r3, #2
 80024e0:	469a      	mov	sl, r3
 80024e2:	ab09      	add	r3, sp, #36	; 0x24
 80024e4:	4698      	mov	r8, r3
 80024e6:	4ac9      	ldr	r2, [pc, #804]	; (800280c <PN532_WriteCommand+0x384>)
 80024e8:	2600      	movs	r6, #0
 80024ea:	4691      	mov	r9, r2
 80024ec:	4642      	mov	r2, r8
 80024ee:	2300      	movs	r3, #0
 80024f0:	4650      	mov	r0, sl
 80024f2:	46bc      	mov	ip, r7
 80024f4:	4dc6      	ldr	r5, [pc, #792]	; (8002810 <PN532_WriteCommand+0x388>)
 80024f6:	9201      	str	r2, [sp, #4]
 80024f8:	9a01      	ldr	r2, [sp, #4]
 80024fa:	3601      	adds	r6, #1
 80024fc:	ca80      	ldmia	r2!, {r7}
 80024fe:	0039      	movs	r1, r7
 8002500:	9201      	str	r2, [sp, #4]
 8002502:	4029      	ands	r1, r5
 8002504:	001a      	movs	r2, r3
 8002506:	4688      	mov	r8, r1
 8002508:	4649      	mov	r1, r9
 800250a:	402a      	ands	r2, r5
 800250c:	407b      	eors	r3, r7
 800250e:	4442      	add	r2, r8
 8002510:	400b      	ands	r3, r1
 8002512:	4053      	eors	r3, r2
 8002514:	4286      	cmp	r6, r0
 8002516:	d3ef      	bcc.n	80024f8 <PN532_WriteCommand+0x70>
 8002518:	9a03      	ldr	r2, [sp, #12]
 800251a:	0419      	lsls	r1, r3, #16
 800251c:	18d2      	adds	r2, r2, r3
 800251e:	0e09      	lsrs	r1, r1, #24
 8002520:	1852      	adds	r2, r2, r1
 8002522:	0219      	lsls	r1, r3, #8
 8002524:	0e09      	lsrs	r1, r1, #24
 8002526:	1852      	adds	r2, r2, r1
 8002528:	0e1b      	lsrs	r3, r3, #24
 800252a:	18d2      	adds	r2, r2, r3
 800252c:	4659      	mov	r1, fp
 800252e:	2303      	movs	r3, #3
 8002530:	4399      	bics	r1, r3
 8002532:	000b      	movs	r3, r1
 8002534:	4667      	mov	r7, ip
 8002536:	b2d2      	uxtb	r2, r2
 8002538:	3103      	adds	r1, #3
 800253a:	459b      	cmp	fp, r3
 800253c:	d033      	beq.n	80025a6 <PN532_WriteCommand+0x11e>
 800253e:	1860      	adds	r0, r4, r1
 8002540:	7943      	ldrb	r3, [r0, #5]
 8002542:	18d2      	adds	r2, r2, r3
 8002544:	1c4b      	adds	r3, r1, #1
 8002546:	b2d2      	uxtb	r2, r2
 8002548:	429f      	cmp	r7, r3
 800254a:	db2c      	blt.n	80025a6 <PN532_WriteCommand+0x11e>
 800254c:	7983      	ldrb	r3, [r0, #6]
 800254e:	18d2      	adds	r2, r2, r3
 8002550:	1c8b      	adds	r3, r1, #2
 8002552:	b2d2      	uxtb	r2, r2
 8002554:	429f      	cmp	r7, r3
 8002556:	db26      	blt.n	80025a6 <PN532_WriteCommand+0x11e>
 8002558:	79c3      	ldrb	r3, [r0, #7]
 800255a:	18d2      	adds	r2, r2, r3
 800255c:	1ccb      	adds	r3, r1, #3
 800255e:	b2d2      	uxtb	r2, r2
 8002560:	429f      	cmp	r7, r3
 8002562:	db20      	blt.n	80025a6 <PN532_WriteCommand+0x11e>
 8002564:	7a03      	ldrb	r3, [r0, #8]
 8002566:	18d2      	adds	r2, r2, r3
 8002568:	1d0b      	adds	r3, r1, #4
 800256a:	b2d2      	uxtb	r2, r2
 800256c:	429f      	cmp	r7, r3
 800256e:	db1a      	blt.n	80025a6 <PN532_WriteCommand+0x11e>
 8002570:	7a43      	ldrb	r3, [r0, #9]
 8002572:	18d2      	adds	r2, r2, r3
 8002574:	1d4b      	adds	r3, r1, #5
 8002576:	b2d2      	uxtb	r2, r2
 8002578:	429f      	cmp	r7, r3
 800257a:	db14      	blt.n	80025a6 <PN532_WriteCommand+0x11e>
 800257c:	7a83      	ldrb	r3, [r0, #10]
 800257e:	18d2      	adds	r2, r2, r3
 8002580:	1d8b      	adds	r3, r1, #6
 8002582:	b2d2      	uxtb	r2, r2
 8002584:	429f      	cmp	r7, r3
 8002586:	db0e      	blt.n	80025a6 <PN532_WriteCommand+0x11e>
 8002588:	7ac3      	ldrb	r3, [r0, #11]
 800258a:	18d2      	adds	r2, r2, r3
 800258c:	1dcb      	adds	r3, r1, #7
 800258e:	b2d2      	uxtb	r2, r2
 8002590:	429f      	cmp	r7, r3
 8002592:	db08      	blt.n	80025a6 <PN532_WriteCommand+0x11e>
 8002594:	7b03      	ldrb	r3, [r0, #12]
 8002596:	3108      	adds	r1, #8
 8002598:	18d2      	adds	r2, r2, r3
 800259a:	b2d2      	uxtb	r2, r2
 800259c:	428f      	cmp	r7, r1
 800259e:	db02      	blt.n	80025a6 <PN532_WriteCommand+0x11e>
 80025a0:	7b43      	ldrb	r3, [r0, #13]
 80025a2:	18d2      	adds	r2, r2, r3
 80025a4:	b2d2      	uxtb	r2, r2
 80025a6:	9b02      	ldr	r3, [sp, #8]
 80025a8:	4252      	negs	r2, r2
 80025aa:	54e2      	strb	r2, [r4, r3]
 80025ac:	2200      	movs	r2, #0
 80025ae:	1dfb      	adds	r3, r7, #7
 80025b0:	b2db      	uxtb	r3, r3
 80025b2:	54e2      	strb	r2, [r4, r3]
 80025b4:	003a      	movs	r2, r7
 80025b6:	23fa      	movs	r3, #250	; 0xfa
 80025b8:	3208      	adds	r2, #8
 80025ba:	b2d2      	uxtb	r2, r2
 80025bc:	009b      	lsls	r3, r3, #2
 80025be:	0021      	movs	r1, r4
 80025c0:	4894      	ldr	r0, [pc, #592]	; (8002814 <PN532_WriteCommand+0x38c>)
 80025c2:	f7fe fcc5 	bl	8000f50 <HAL_UART_Transmit>
 80025c6:	2064      	movs	r0, #100	; 0x64
 80025c8:	f7fd ff44 	bl	8000454 <HAL_Delay>
 80025cc:	ab04      	add	r3, sp, #16
 80025ce:	1cd8      	adds	r0, r3, #3
 80025d0:	f000 fec8 	bl	8003364 <get_rx_data_len>
 80025d4:	ab04      	add	r3, sp, #16
 80025d6:	78dd      	ldrb	r5, [r3, #3]
 80025d8:	2000      	movs	r0, #0
 80025da:	2d00      	cmp	r5, #0
 80025dc:	d100      	bne.n	80025e0 <PN532_WriteCommand+0x158>
 80025de:	e0f6      	b.n	80027ce <PN532_WriteCommand+0x346>
 80025e0:	4b8d      	ldr	r3, [pc, #564]	; (8002818 <PN532_WriteCommand+0x390>)
 80025e2:	4c8e      	ldr	r4, [pc, #568]	; (800281c <PN532_WriteCommand+0x394>)
 80025e4:	689a      	ldr	r2, [r3, #8]
 80025e6:	a805      	add	r0, sp, #20
 80025e8:	9205      	str	r2, [sp, #20]
 80025ea:	899b      	ldrh	r3, [r3, #12]
 80025ec:	2206      	movs	r2, #6
 80025ee:	8083      	strh	r3, [r0, #4]
 80025f0:	0021      	movs	r1, r4
 80025f2:	f000 ff47 	bl	8003484 <memcmp>
 80025f6:	2800      	cmp	r0, #0
 80025f8:	d000      	beq.n	80025fc <PN532_WriteCommand+0x174>
 80025fa:	e0ef      	b.n	80027dc <PN532_WriteCommand+0x354>
 80025fc:	1ea8      	subs	r0, r5, #2
 80025fe:	280b      	cmp	r0, #11
 8002600:	dc00      	bgt.n	8002604 <PN532_WriteCommand+0x17c>
 8002602:	e0fa      	b.n	80027fa <PN532_WriteCommand+0x372>
 8002604:	0023      	movs	r3, r4
 8002606:	002e      	movs	r6, r5
 8002608:	2203      	movs	r2, #3
 800260a:	330b      	adds	r3, #11
 800260c:	425b      	negs	r3, r3
 800260e:	3d0e      	subs	r5, #14
 8002610:	3e0d      	subs	r6, #13
 8002612:	401a      	ands	r2, r3
 8002614:	2d08      	cmp	r5, #8
 8002616:	d800      	bhi.n	800261a <PN532_WriteCommand+0x192>
 8002618:	e0f4      	b.n	8002804 <PN532_WriteCommand+0x37c>
 800261a:	2a00      	cmp	r2, #0
 800261c:	d100      	bne.n	8002620 <PN532_WriteCommand+0x198>
 800261e:	e0e1      	b.n	80027e4 <PN532_WriteCommand+0x35c>
 8002620:	7ae3      	ldrb	r3, [r4, #11]
 8002622:	4698      	mov	r8, r3
 8002624:	2a01      	cmp	r2, #1
 8002626:	d100      	bne.n	800262a <PN532_WriteCommand+0x1a2>
 8002628:	e0e4      	b.n	80027f4 <PN532_WriteCommand+0x36c>
 800262a:	7b23      	ldrb	r3, [r4, #12]
 800262c:	4443      	add	r3, r8
 800262e:	b2db      	uxtb	r3, r3
 8002630:	4698      	mov	r8, r3
 8002632:	2a03      	cmp	r2, #3
 8002634:	d000      	beq.n	8002638 <PN532_WriteCommand+0x1b0>
 8002636:	e0e2      	b.n	80027fe <PN532_WriteCommand+0x376>
 8002638:	7b63      	ldrb	r3, [r4, #13]
 800263a:	4443      	add	r3, r8
 800263c:	b2db      	uxtb	r3, r3
 800263e:	4698      	mov	r8, r3
 8002640:	230e      	movs	r3, #14
 8002642:	4699      	mov	r9, r3
 8002644:	1ab6      	subs	r6, r6, r2
 8002646:	320b      	adds	r2, #11
 8002648:	18a2      	adds	r2, r4, r2
 800264a:	08b5      	lsrs	r5, r6, #2
 800264c:	6813      	ldr	r3, [r2, #0]
 800264e:	2d01      	cmp	r5, #1
 8002650:	d973      	bls.n	800273a <PN532_WriteCommand+0x2b2>
 8002652:	001f      	movs	r7, r3
 8002654:	496e      	ldr	r1, [pc, #440]	; (8002810 <PN532_WriteCommand+0x388>)
 8002656:	400f      	ands	r7, r1
 8002658:	46ba      	mov	sl, r7
 800265a:	6857      	ldr	r7, [r2, #4]
 800265c:	400f      	ands	r7, r1
 800265e:	44ba      	add	sl, r7
 8002660:	6857      	ldr	r7, [r2, #4]
 8002662:	407b      	eors	r3, r7
 8002664:	4f69      	ldr	r7, [pc, #420]	; (800280c <PN532_WriteCommand+0x384>)
 8002666:	403b      	ands	r3, r7
 8002668:	46bc      	mov	ip, r7
 800266a:	4657      	mov	r7, sl
 800266c:	405f      	eors	r7, r3
 800266e:	003b      	movs	r3, r7
 8002670:	2d02      	cmp	r5, #2
 8002672:	d062      	beq.n	800273a <PN532_WriteCommand+0x2b2>
 8002674:	400f      	ands	r7, r1
 8002676:	46bb      	mov	fp, r7
 8002678:	6897      	ldr	r7, [r2, #8]
 800267a:	400f      	ands	r7, r1
 800267c:	46ba      	mov	sl, r7
 800267e:	6897      	ldr	r7, [r2, #8]
 8002680:	44da      	add	sl, fp
 8002682:	407b      	eors	r3, r7
 8002684:	4667      	mov	r7, ip
 8002686:	403b      	ands	r3, r7
 8002688:	4657      	mov	r7, sl
 800268a:	405f      	eors	r7, r3
 800268c:	003b      	movs	r3, r7
 800268e:	2d03      	cmp	r5, #3
 8002690:	d053      	beq.n	800273a <PN532_WriteCommand+0x2b2>
 8002692:	400f      	ands	r7, r1
 8002694:	46bb      	mov	fp, r7
 8002696:	68d7      	ldr	r7, [r2, #12]
 8002698:	400f      	ands	r7, r1
 800269a:	46ba      	mov	sl, r7
 800269c:	68d7      	ldr	r7, [r2, #12]
 800269e:	44da      	add	sl, fp
 80026a0:	407b      	eors	r3, r7
 80026a2:	4667      	mov	r7, ip
 80026a4:	403b      	ands	r3, r7
 80026a6:	4657      	mov	r7, sl
 80026a8:	405f      	eors	r7, r3
 80026aa:	003b      	movs	r3, r7
 80026ac:	2d04      	cmp	r5, #4
 80026ae:	d044      	beq.n	800273a <PN532_WriteCommand+0x2b2>
 80026b0:	400f      	ands	r7, r1
 80026b2:	46bb      	mov	fp, r7
 80026b4:	6917      	ldr	r7, [r2, #16]
 80026b6:	400f      	ands	r7, r1
 80026b8:	46ba      	mov	sl, r7
 80026ba:	6917      	ldr	r7, [r2, #16]
 80026bc:	44da      	add	sl, fp
 80026be:	407b      	eors	r3, r7
 80026c0:	4667      	mov	r7, ip
 80026c2:	403b      	ands	r3, r7
 80026c4:	4657      	mov	r7, sl
 80026c6:	405f      	eors	r7, r3
 80026c8:	003b      	movs	r3, r7
 80026ca:	2d05      	cmp	r5, #5
 80026cc:	d035      	beq.n	800273a <PN532_WriteCommand+0x2b2>
 80026ce:	400f      	ands	r7, r1
 80026d0:	46bb      	mov	fp, r7
 80026d2:	6957      	ldr	r7, [r2, #20]
 80026d4:	400f      	ands	r7, r1
 80026d6:	46ba      	mov	sl, r7
 80026d8:	6957      	ldr	r7, [r2, #20]
 80026da:	44da      	add	sl, fp
 80026dc:	407b      	eors	r3, r7
 80026de:	4667      	mov	r7, ip
 80026e0:	403b      	ands	r3, r7
 80026e2:	4657      	mov	r7, sl
 80026e4:	405f      	eors	r7, r3
 80026e6:	003b      	movs	r3, r7
 80026e8:	2d06      	cmp	r5, #6
 80026ea:	d026      	beq.n	800273a <PN532_WriteCommand+0x2b2>
 80026ec:	400f      	ands	r7, r1
 80026ee:	46bb      	mov	fp, r7
 80026f0:	6997      	ldr	r7, [r2, #24]
 80026f2:	400f      	ands	r7, r1
 80026f4:	46ba      	mov	sl, r7
 80026f6:	6997      	ldr	r7, [r2, #24]
 80026f8:	44da      	add	sl, fp
 80026fa:	407b      	eors	r3, r7
 80026fc:	4667      	mov	r7, ip
 80026fe:	403b      	ands	r3, r7
 8002700:	4657      	mov	r7, sl
 8002702:	405f      	eors	r7, r3
 8002704:	003b      	movs	r3, r7
 8002706:	2d07      	cmp	r5, #7
 8002708:	d017      	beq.n	800273a <PN532_WriteCommand+0x2b2>
 800270a:	400f      	ands	r7, r1
 800270c:	46bb      	mov	fp, r7
 800270e:	69d7      	ldr	r7, [r2, #28]
 8002710:	400f      	ands	r7, r1
 8002712:	46ba      	mov	sl, r7
 8002714:	69d7      	ldr	r7, [r2, #28]
 8002716:	44da      	add	sl, fp
 8002718:	407b      	eors	r3, r7
 800271a:	4667      	mov	r7, ip
 800271c:	403b      	ands	r3, r7
 800271e:	4657      	mov	r7, sl
 8002720:	405f      	eors	r7, r3
 8002722:	003b      	movs	r3, r7
 8002724:	2d08      	cmp	r5, #8
 8002726:	d008      	beq.n	800273a <PN532_WriteCommand+0x2b2>
 8002728:	003d      	movs	r5, r7
 800272a:	6a12      	ldr	r2, [r2, #32]
 800272c:	400d      	ands	r5, r1
 800272e:	4053      	eors	r3, r2
 8002730:	4011      	ands	r1, r2
 8002732:	4662      	mov	r2, ip
 8002734:	1869      	adds	r1, r5, r1
 8002736:	4013      	ands	r3, r2
 8002738:	404b      	eors	r3, r1
 800273a:	041a      	lsls	r2, r3, #16
 800273c:	0e12      	lsrs	r2, r2, #24
 800273e:	189a      	adds	r2, r3, r2
 8002740:	0219      	lsls	r1, r3, #8
 8002742:	0e09      	lsrs	r1, r1, #24
 8002744:	4442      	add	r2, r8
 8002746:	1852      	adds	r2, r2, r1
 8002748:	0e1b      	lsrs	r3, r3, #24
 800274a:	18d3      	adds	r3, r2, r3
 800274c:	0031      	movs	r1, r6
 800274e:	2203      	movs	r2, #3
 8002750:	4391      	bics	r1, r2
 8002752:	464a      	mov	r2, r9
 8002754:	b2db      	uxtb	r3, r3
 8002756:	188a      	adds	r2, r1, r2
 8002758:	428e      	cmp	r6, r1
 800275a:	d032      	beq.n	80027c2 <PN532_WriteCommand+0x33a>
 800275c:	5ca1      	ldrb	r1, [r4, r2]
 800275e:	185b      	adds	r3, r3, r1
 8002760:	1c51      	adds	r1, r2, #1
 8002762:	b2db      	uxtb	r3, r3
 8002764:	4288      	cmp	r0, r1
 8002766:	dd2c      	ble.n	80027c2 <PN532_WriteCommand+0x33a>
 8002768:	5c61      	ldrb	r1, [r4, r1]
 800276a:	185b      	adds	r3, r3, r1
 800276c:	1c91      	adds	r1, r2, #2
 800276e:	b2db      	uxtb	r3, r3
 8002770:	4281      	cmp	r1, r0
 8002772:	da26      	bge.n	80027c2 <PN532_WriteCommand+0x33a>
 8002774:	5c61      	ldrb	r1, [r4, r1]
 8002776:	185b      	adds	r3, r3, r1
 8002778:	1cd1      	adds	r1, r2, #3
 800277a:	b2db      	uxtb	r3, r3
 800277c:	4288      	cmp	r0, r1
 800277e:	dd20      	ble.n	80027c2 <PN532_WriteCommand+0x33a>
 8002780:	5c61      	ldrb	r1, [r4, r1]
 8002782:	185b      	adds	r3, r3, r1
 8002784:	1d11      	adds	r1, r2, #4
 8002786:	b2db      	uxtb	r3, r3
 8002788:	4288      	cmp	r0, r1
 800278a:	dd1a      	ble.n	80027c2 <PN532_WriteCommand+0x33a>
 800278c:	5c61      	ldrb	r1, [r4, r1]
 800278e:	185b      	adds	r3, r3, r1
 8002790:	1d51      	adds	r1, r2, #5
 8002792:	b2db      	uxtb	r3, r3
 8002794:	4288      	cmp	r0, r1
 8002796:	dd14      	ble.n	80027c2 <PN532_WriteCommand+0x33a>
 8002798:	5c61      	ldrb	r1, [r4, r1]
 800279a:	185b      	adds	r3, r3, r1
 800279c:	1d91      	adds	r1, r2, #6
 800279e:	b2db      	uxtb	r3, r3
 80027a0:	4288      	cmp	r0, r1
 80027a2:	dd0e      	ble.n	80027c2 <PN532_WriteCommand+0x33a>
 80027a4:	5c61      	ldrb	r1, [r4, r1]
 80027a6:	185b      	adds	r3, r3, r1
 80027a8:	1dd1      	adds	r1, r2, #7
 80027aa:	b2db      	uxtb	r3, r3
 80027ac:	4288      	cmp	r0, r1
 80027ae:	dd08      	ble.n	80027c2 <PN532_WriteCommand+0x33a>
 80027b0:	5c61      	ldrb	r1, [r4, r1]
 80027b2:	3208      	adds	r2, #8
 80027b4:	185b      	adds	r3, r3, r1
 80027b6:	b2db      	uxtb	r3, r3
 80027b8:	4290      	cmp	r0, r2
 80027ba:	dd02      	ble.n	80027c2 <PN532_WriteCommand+0x33a>
 80027bc:	5ca2      	ldrb	r2, [r4, r2]
 80027be:	189b      	adds	r3, r3, r2
 80027c0:	b2db      	uxtb	r3, r3
 80027c2:	425b      	negs	r3, r3
 80027c4:	b2db      	uxtb	r3, r3
 80027c6:	5c22      	ldrb	r2, [r4, r0]
 80027c8:	429a      	cmp	r2, r3
 80027ca:	d107      	bne.n	80027dc <PN532_WriteCommand+0x354>
 80027cc:	2001      	movs	r0, #1
 80027ce:	b021      	add	sp, #132	; 0x84
 80027d0:	bc3c      	pop	{r2, r3, r4, r5}
 80027d2:	4690      	mov	r8, r2
 80027d4:	4699      	mov	r9, r3
 80027d6:	46a2      	mov	sl, r4
 80027d8:	46ab      	mov	fp, r5
 80027da:	bdf0      	pop	{r4, r5, r6, r7, pc}
 80027dc:	f000 fdc8 	bl	8003370 <clean_uart1_rx_data>
 80027e0:	2000      	movs	r0, #0
 80027e2:	e7f4      	b.n	80027ce <PN532_WriteCommand+0x346>
 80027e4:	2300      	movs	r3, #0
 80027e6:	4698      	mov	r8, r3
 80027e8:	330b      	adds	r3, #11
 80027ea:	4699      	mov	r9, r3
 80027ec:	e72a      	b.n	8002644 <PN532_WriteCommand+0x1bc>
 80027ee:	2100      	movs	r1, #0
 80027f0:	2200      	movs	r2, #0
 80027f2:	e6a4      	b.n	800253e <PN532_WriteCommand+0xb6>
 80027f4:	230c      	movs	r3, #12
 80027f6:	4699      	mov	r9, r3
 80027f8:	e724      	b.n	8002644 <PN532_WriteCommand+0x1bc>
 80027fa:	2300      	movs	r3, #0
 80027fc:	e7e3      	b.n	80027c6 <PN532_WriteCommand+0x33e>
 80027fe:	230d      	movs	r3, #13
 8002800:	4699      	mov	r9, r3
 8002802:	e71f      	b.n	8002644 <PN532_WriteCommand+0x1bc>
 8002804:	2300      	movs	r3, #0
 8002806:	220b      	movs	r2, #11
 8002808:	e7a8      	b.n	800275c <PN532_WriteCommand+0x2d4>
 800280a:	46c0      	nop			; (mov r8, r8)
 800280c:	80808080 	.word	0x80808080
 8002810:	7f7f7f7f 	.word	0x7f7f7f7f
 8002814:	200004cc 	.word	0x200004cc
 8002818:	080034fc 	.word	0x080034fc
 800281c:	2000053c 	.word	0x2000053c

08002820 <PN532_SAMConfig>:
 8002820:	b5f0      	push	{r4, r5, r6, r7, lr}
 8002822:	46de      	mov	lr, fp
 8002824:	4657      	mov	r7, sl
 8002826:	464e      	mov	r6, r9
 8002828:	4645      	mov	r5, r8
 800282a:	2103      	movs	r1, #3
 800282c:	b5e0      	push	{r5, r6, r7, lr}
 800282e:	4b9f      	ldr	r3, [pc, #636]	; (8002aac <PN532_SAMConfig+0x28c>)
 8002830:	b09f      	sub	sp, #124	; 0x7c
 8002832:	425a      	negs	r2, r3
 8002834:	4011      	ands	r1, r2
 8002836:	000a      	movs	r2, r1
 8002838:	9100      	str	r1, [sp, #0]
 800283a:	a902      	add	r1, sp, #8
 800283c:	1ccf      	adds	r7, r1, #3
 800283e:	210b      	movs	r1, #11
 8002840:	4249      	negs	r1, r1
 8002842:	468b      	mov	fp, r1
 8002844:	4690      	mov	r8, r2
 8002846:	449b      	add	fp, r3
 8002848:	4498      	add	r8, r3
 800284a:	465c      	mov	r4, fp
 800284c:	4646      	mov	r6, r8
 800284e:	2300      	movs	r3, #0
 8002850:	703b      	strb	r3, [r7, #0]
 8002852:	4b97      	ldr	r3, [pc, #604]	; (8002ab0 <PN532_SAMConfig+0x290>)
 8002854:	220c      	movs	r2, #12
 8002856:	9305      	str	r3, [sp, #20]
 8002858:	4b96      	ldr	r3, [pc, #600]	; (8002ab4 <PN532_SAMConfig+0x294>)
 800285a:	a905      	add	r1, sp, #20
 800285c:	9306      	str	r3, [sp, #24]
 800285e:	4b96      	ldr	r3, [pc, #600]	; (8002ab8 <PN532_SAMConfig+0x298>)
 8002860:	4896      	ldr	r0, [pc, #600]	; (8002abc <PN532_SAMConfig+0x29c>)
 8002862:	9307      	str	r3, [sp, #28]
 8002864:	23fa      	movs	r3, #250	; 0xfa
 8002866:	009b      	lsls	r3, r3, #2
 8002868:	f7fe fb72 	bl	8000f50 <HAL_UART_Transmit>
 800286c:	2064      	movs	r0, #100	; 0x64
 800286e:	f7fd fdf1 	bl	8000454 <HAL_Delay>
 8002872:	0038      	movs	r0, r7
 8002874:	f000 fd76 	bl	8003364 <get_rx_data_len>
 8002878:	783d      	ldrb	r5, [r7, #0]
 800287a:	2d00      	cmp	r5, #0
 800287c:	d0e7      	beq.n	800284e <PN532_SAMConfig+0x2e>
 800287e:	23ff      	movs	r3, #255	; 0xff
 8002880:	041b      	lsls	r3, r3, #16
 8002882:	9303      	str	r3, [sp, #12]
 8002884:	23ff      	movs	r3, #255	; 0xff
 8002886:	aa02      	add	r2, sp, #8
 8002888:	8113      	strh	r3, [r2, #8]
 800288a:	0021      	movs	r1, r4
 800288c:	2206      	movs	r2, #6
 800288e:	a803      	add	r0, sp, #12
 8002890:	f000 fdf8 	bl	8003484 <memcmp>
 8002894:	2800      	cmp	r0, #0
 8002896:	d000      	beq.n	800289a <PN532_SAMConfig+0x7a>
 8002898:	e0f2      	b.n	8002a80 <PN532_SAMConfig+0x260>
 800289a:	1ea9      	subs	r1, r5, #2
 800289c:	290b      	cmp	r1, #11
 800289e:	dc00      	bgt.n	80028a2 <PN532_SAMConfig+0x82>
 80028a0:	e0ff      	b.n	8002aa2 <PN532_SAMConfig+0x282>
 80028a2:	002b      	movs	r3, r5
 80028a4:	3d0e      	subs	r5, #14
 80028a6:	3b0d      	subs	r3, #13
 80028a8:	2d08      	cmp	r5, #8
 80028aa:	d800      	bhi.n	80028ae <PN532_SAMConfig+0x8e>
 80028ac:	e0fb      	b.n	8002aa6 <PN532_SAMConfig+0x286>
 80028ae:	9800      	ldr	r0, [sp, #0]
 80028b0:	2800      	cmp	r0, #0
 80028b2:	d100      	bne.n	80028b6 <PN532_SAMConfig+0x96>
 80028b4:	e0ef      	b.n	8002a96 <PN532_SAMConfig+0x276>
 80028b6:	7ae2      	ldrb	r2, [r4, #11]
 80028b8:	4691      	mov	r9, r2
 80028ba:	2801      	cmp	r0, #1
 80028bc:	d100      	bne.n	80028c0 <PN532_SAMConfig+0xa0>
 80028be:	e0e6      	b.n	8002a8e <PN532_SAMConfig+0x26e>
 80028c0:	7b22      	ldrb	r2, [r4, #12]
 80028c2:	444a      	add	r2, r9
 80028c4:	b2d2      	uxtb	r2, r2
 80028c6:	4691      	mov	r9, r2
 80028c8:	2803      	cmp	r0, #3
 80028ca:	d000      	beq.n	80028ce <PN532_SAMConfig+0xae>
 80028cc:	e0db      	b.n	8002a86 <PN532_SAMConfig+0x266>
 80028ce:	7b62      	ldrb	r2, [r4, #13]
 80028d0:	444a      	add	r2, r9
 80028d2:	b2d2      	uxtb	r2, r2
 80028d4:	4691      	mov	r9, r2
 80028d6:	220e      	movs	r2, #14
 80028d8:	4690      	mov	r8, r2
 80028da:	0002      	movs	r2, r0
 80028dc:	1a9b      	subs	r3, r3, r2
 80028de:	9301      	str	r3, [sp, #4]
 80028e0:	0898      	lsrs	r0, r3, #2
 80028e2:	6833      	ldr	r3, [r6, #0]
 80028e4:	2801      	cmp	r0, #1
 80028e6:	d978      	bls.n	80029da <PN532_SAMConfig+0x1ba>
 80028e8:	4a75      	ldr	r2, [pc, #468]	; (8002ac0 <PN532_SAMConfig+0x2a0>)
 80028ea:	6875      	ldr	r5, [r6, #4]
 80028ec:	4015      	ands	r5, r2
 80028ee:	46aa      	mov	sl, r5
 80028f0:	001d      	movs	r5, r3
 80028f2:	4015      	ands	r5, r2
 80028f4:	46ac      	mov	ip, r5
 80028f6:	6875      	ldr	r5, [r6, #4]
 80028f8:	44e2      	add	sl, ip
 80028fa:	406b      	eors	r3, r5
 80028fc:	4d71      	ldr	r5, [pc, #452]	; (8002ac4 <PN532_SAMConfig+0x2a4>)
 80028fe:	402b      	ands	r3, r5
 8002900:	46ac      	mov	ip, r5
 8002902:	4655      	mov	r5, sl
 8002904:	405d      	eors	r5, r3
 8002906:	002b      	movs	r3, r5
 8002908:	2802      	cmp	r0, #2
 800290a:	d066      	beq.n	80029da <PN532_SAMConfig+0x1ba>
 800290c:	68b5      	ldr	r5, [r6, #8]
 800290e:	4015      	ands	r5, r2
 8002910:	46ab      	mov	fp, r5
 8002912:	001d      	movs	r5, r3
 8002914:	4015      	ands	r5, r2
 8002916:	46aa      	mov	sl, r5
 8002918:	68b5      	ldr	r5, [r6, #8]
 800291a:	44da      	add	sl, fp
 800291c:	406b      	eors	r3, r5
 800291e:	4665      	mov	r5, ip
 8002920:	402b      	ands	r3, r5
 8002922:	4655      	mov	r5, sl
 8002924:	405d      	eors	r5, r3
 8002926:	002b      	movs	r3, r5
 8002928:	2803      	cmp	r0, #3
 800292a:	d056      	beq.n	80029da <PN532_SAMConfig+0x1ba>
 800292c:	68f5      	ldr	r5, [r6, #12]
 800292e:	4015      	ands	r5, r2
 8002930:	46ab      	mov	fp, r5
 8002932:	001d      	movs	r5, r3
 8002934:	4015      	ands	r5, r2
 8002936:	46aa      	mov	sl, r5
 8002938:	68f5      	ldr	r5, [r6, #12]
 800293a:	44da      	add	sl, fp
 800293c:	406b      	eors	r3, r5
 800293e:	4665      	mov	r5, ip
 8002940:	402b      	ands	r3, r5
 8002942:	4655      	mov	r5, sl
 8002944:	405d      	eors	r5, r3
 8002946:	002b      	movs	r3, r5
 8002948:	2804      	cmp	r0, #4
 800294a:	d046      	beq.n	80029da <PN532_SAMConfig+0x1ba>
 800294c:	6935      	ldr	r5, [r6, #16]
 800294e:	4015      	ands	r5, r2
 8002950:	46ab      	mov	fp, r5
 8002952:	001d      	movs	r5, r3
 8002954:	4015      	ands	r5, r2
 8002956:	46aa      	mov	sl, r5
 8002958:	6935      	ldr	r5, [r6, #16]
 800295a:	44da      	add	sl, fp
 800295c:	406b      	eors	r3, r5
 800295e:	4665      	mov	r5, ip
 8002960:	402b      	ands	r3, r5
 8002962:	4655      	mov	r5, sl
 8002964:	405d      	eors	r5, r3
 8002966:	002b      	movs	r3, r5
 8002968:	2805      	cmp	r0, #5
 800296a:	d036      	beq.n	80029da <PN532_SAMConfig+0x1ba>
 800296c:	6975      	ldr	r5, [r6, #20]
 800296e:	4015      	ands	r5, r2
 8002970:	46ab      	mov	fp, r5
 8002972:	001d      	movs	r5, r3
 8002974:	4015      	ands	r5, r2
 8002976:	46aa      	mov	sl, r5
 8002978:	6975      	ldr	r5, [r6, #20]
 800297a:	44da      	add	sl, fp
 800297c:	406b      	eors	r3, r5
 800297e:	4665      	mov	r5, ip
 8002980:	402b      	ands	r3, r5
 8002982:	4655      	mov	r5, sl
 8002984:	405d      	eors	r5, r3
 8002986:	002b      	movs	r3, r5
 8002988:	2806      	cmp	r0, #6
 800298a:	d026      	beq.n	80029da <PN532_SAMConfig+0x1ba>
 800298c:	4015      	ands	r5, r2
 800298e:	46ab      	mov	fp, r5
 8002990:	69b5      	ldr	r5, [r6, #24]
 8002992:	4015      	ands	r5, r2
 8002994:	46aa      	mov	sl, r5
 8002996:	69b5      	ldr	r5, [r6, #24]
 8002998:	44da      	add	sl, fp
 800299a:	406b      	eors	r3, r5
 800299c:	4665      	mov	r5, ip
 800299e:	402b      	ands	r3, r5
 80029a0:	4655      	mov	r5, sl
 80029a2:	405d      	eors	r5, r3
 80029a4:	002b      	movs	r3, r5
 80029a6:	2807      	cmp	r0, #7
 80029a8:	d017      	beq.n	80029da <PN532_SAMConfig+0x1ba>
 80029aa:	4015      	ands	r5, r2
 80029ac:	46ab      	mov	fp, r5
 80029ae:	69f5      	ldr	r5, [r6, #28]
 80029b0:	4015      	ands	r5, r2
 80029b2:	46aa      	mov	sl, r5
 80029b4:	69f5      	ldr	r5, [r6, #28]
 80029b6:	44da      	add	sl, fp
 80029b8:	406b      	eors	r3, r5
 80029ba:	4665      	mov	r5, ip
 80029bc:	402b      	ands	r3, r5
 80029be:	4655      	mov	r5, sl
 80029c0:	405d      	eors	r5, r3
 80029c2:	002b      	movs	r3, r5
 80029c4:	2808      	cmp	r0, #8
 80029c6:	d008      	beq.n	80029da <PN532_SAMConfig+0x1ba>
 80029c8:	0028      	movs	r0, r5
 80029ca:	6a35      	ldr	r5, [r6, #32]
 80029cc:	4010      	ands	r0, r2
 80029ce:	402a      	ands	r2, r5
 80029d0:	1882      	adds	r2, r0, r2
 80029d2:	4660      	mov	r0, ip
 80029d4:	406b      	eors	r3, r5
 80029d6:	4003      	ands	r3, r0
 80029d8:	4053      	eors	r3, r2
 80029da:	041a      	lsls	r2, r3, #16
 80029dc:	0e12      	lsrs	r2, r2, #24
 80029de:	189a      	adds	r2, r3, r2
 80029e0:	0218      	lsls	r0, r3, #8
 80029e2:	0e00      	lsrs	r0, r0, #24
 80029e4:	444a      	add	r2, r9
 80029e6:	9d01      	ldr	r5, [sp, #4]
 80029e8:	1812      	adds	r2, r2, r0
 80029ea:	0e1b      	lsrs	r3, r3, #24
 80029ec:	18d3      	adds	r3, r2, r3
 80029ee:	0028      	movs	r0, r5
 80029f0:	2203      	movs	r2, #3
 80029f2:	4390      	bics	r0, r2
 80029f4:	4642      	mov	r2, r8
 80029f6:	b2db      	uxtb	r3, r3
 80029f8:	1882      	adds	r2, r0, r2
 80029fa:	4285      	cmp	r5, r0
 80029fc:	d032      	beq.n	8002a64 <PN532_SAMConfig+0x244>
 80029fe:	5ca0      	ldrb	r0, [r4, r2]
 8002a00:	181b      	adds	r3, r3, r0
 8002a02:	1c50      	adds	r0, r2, #1
 8002a04:	b2db      	uxtb	r3, r3
 8002a06:	4281      	cmp	r1, r0
 8002a08:	dd2c      	ble.n	8002a64 <PN532_SAMConfig+0x244>
 8002a0a:	5c20      	ldrb	r0, [r4, r0]
 8002a0c:	181b      	adds	r3, r3, r0
 8002a0e:	1c90      	adds	r0, r2, #2
 8002a10:	b2db      	uxtb	r3, r3
 8002a12:	4281      	cmp	r1, r0
 8002a14:	dd26      	ble.n	8002a64 <PN532_SAMConfig+0x244>
 8002a16:	5c20      	ldrb	r0, [r4, r0]
 8002a18:	181b      	adds	r3, r3, r0
 8002a1a:	1cd0      	adds	r0, r2, #3
 8002a1c:	b2db      	uxtb	r3, r3
 8002a1e:	4281      	cmp	r1, r0
 8002a20:	dd20      	ble.n	8002a64 <PN532_SAMConfig+0x244>
 8002a22:	5c20      	ldrb	r0, [r4, r0]
 8002a24:	181b      	adds	r3, r3, r0
 8002a26:	1d10      	adds	r0, r2, #4
 8002a28:	b2db      	uxtb	r3, r3
 8002a2a:	4281      	cmp	r1, r0
 8002a2c:	dd1a      	ble.n	8002a64 <PN532_SAMConfig+0x244>
 8002a2e:	5c20      	ldrb	r0, [r4, r0]
 8002a30:	181b      	adds	r3, r3, r0
 8002a32:	1d50      	adds	r0, r2, #5
 8002a34:	b2db      	uxtb	r3, r3
 8002a36:	4281      	cmp	r1, r0
 8002a38:	dd14      	ble.n	8002a64 <PN532_SAMConfig+0x244>
 8002a3a:	5c20      	ldrb	r0, [r4, r0]
 8002a3c:	181b      	adds	r3, r3, r0
 8002a3e:	1d90      	adds	r0, r2, #6
 8002a40:	b2db      	uxtb	r3, r3
 8002a42:	4281      	cmp	r1, r0
 8002a44:	dd0e      	ble.n	8002a64 <PN532_SAMConfig+0x244>
 8002a46:	5c20      	ldrb	r0, [r4, r0]
 8002a48:	181b      	adds	r3, r3, r0
 8002a4a:	1dd0      	adds	r0, r2, #7
 8002a4c:	b2db      	uxtb	r3, r3
 8002a4e:	4281      	cmp	r1, r0
 8002a50:	dd08      	ble.n	8002a64 <PN532_SAMConfig+0x244>
 8002a52:	5c20      	ldrb	r0, [r4, r0]
 8002a54:	3208      	adds	r2, #8
 8002a56:	181b      	adds	r3, r3, r0
 8002a58:	b2db      	uxtb	r3, r3
 8002a5a:	4291      	cmp	r1, r2
 8002a5c:	dd02      	ble.n	8002a64 <PN532_SAMConfig+0x244>
 8002a5e:	5ca2      	ldrb	r2, [r4, r2]
 8002a60:	189b      	adds	r3, r3, r2
 8002a62:	b2db      	uxtb	r3, r3
 8002a64:	425b      	negs	r3, r3
 8002a66:	b2db      	uxtb	r3, r3
 8002a68:	5c62      	ldrb	r2, [r4, r1]
 8002a6a:	429a      	cmp	r2, r3
 8002a6c:	d108      	bne.n	8002a80 <PN532_SAMConfig+0x260>
 8002a6e:	f000 fc7f 	bl	8003370 <clean_uart1_rx_data>
 8002a72:	b01f      	add	sp, #124	; 0x7c
 8002a74:	bc3c      	pop	{r2, r3, r4, r5}
 8002a76:	4690      	mov	r8, r2
 8002a78:	4699      	mov	r9, r3
 8002a7a:	46a2      	mov	sl, r4
 8002a7c:	46ab      	mov	fp, r5
 8002a7e:	bdf0      	pop	{r4, r5, r6, r7, pc}
 8002a80:	f000 fc76 	bl	8003370 <clean_uart1_rx_data>
 8002a84:	e6e3      	b.n	800284e <PN532_SAMConfig+0x2e>
 8002a86:	220d      	movs	r2, #13
 8002a88:	4690      	mov	r8, r2
 8002a8a:	0002      	movs	r2, r0
 8002a8c:	e726      	b.n	80028dc <PN532_SAMConfig+0xbc>
 8002a8e:	220c      	movs	r2, #12
 8002a90:	4690      	mov	r8, r2
 8002a92:	0002      	movs	r2, r0
 8002a94:	e722      	b.n	80028dc <PN532_SAMConfig+0xbc>
 8002a96:	2200      	movs	r2, #0
 8002a98:	4691      	mov	r9, r2
 8002a9a:	320b      	adds	r2, #11
 8002a9c:	4690      	mov	r8, r2
 8002a9e:	0002      	movs	r2, r0
 8002aa0:	e71c      	b.n	80028dc <PN532_SAMConfig+0xbc>
 8002aa2:	2300      	movs	r3, #0
 8002aa4:	e7e0      	b.n	8002a68 <PN532_SAMConfig+0x248>
 8002aa6:	2300      	movs	r3, #0
 8002aa8:	220b      	movs	r2, #11
 8002aaa:	e7a8      	b.n	80029fe <PN532_SAMConfig+0x1de>
 8002aac:	20000547 	.word	0x20000547
 8002ab0:	05ff0000 	.word	0x05ff0000
 8002ab4:	0114d4fb 	.word	0x0114d4fb
 8002ab8:	00020114 	.word	0x00020114
 8002abc:	200004cc 	.word	0x200004cc
 8002ac0:	7f7f7f7f 	.word	0x7f7f7f7f
 8002ac4:	80808080 	.word	0x80808080

08002ac8 <PN532_InListPassiveTarget>:
 8002ac8:	b5f0      	push	{r4, r5, r6, r7, lr}
 8002aca:	4645      	mov	r5, r8
 8002acc:	46de      	mov	lr, fp
 8002ace:	4657      	mov	r7, sl
 8002ad0:	464e      	mov	r6, r9
 8002ad2:	b5e0      	push	{r5, r6, r7, lr}
 8002ad4:	4bb2      	ldr	r3, [pc, #712]	; (8002da0 <PN532_InListPassiveTarget+0x2d8>)
 8002ad6:	b09f      	sub	sp, #124	; 0x7c
 8002ad8:	9305      	str	r3, [sp, #20]
 8002ada:	2300      	movs	r3, #0
 8002adc:	4fb1      	ldr	r7, [pc, #708]	; (8002da4 <PN532_InListPassiveTarget+0x2dc>)
 8002ade:	ad05      	add	r5, sp, #20
 8002ae0:	80ab      	strh	r3, [r5, #4]
 8002ae2:	2206      	movs	r2, #6
 8002ae4:	4680      	mov	r8, r0
 8002ae6:	000c      	movs	r4, r1
 8002ae8:	4baf      	ldr	r3, [pc, #700]	; (8002da8 <PN532_InListPassiveTarget+0x2e0>)
 8002aea:	0029      	movs	r1, r5
 8002aec:	0038      	movs	r0, r7
 8002aee:	f7fe fa2f 	bl	8000f50 <HAL_UART_Transmit>
 8002af2:	2280      	movs	r2, #128	; 0x80
 8002af4:	6839      	ldr	r1, [r7, #0]
 8002af6:	69cb      	ldr	r3, [r1, #28]
 8002af8:	421a      	tst	r2, r3
 8002afa:	d0fc      	beq.n	8002af6 <PN532_InListPassiveTarget+0x2e>
 8002afc:	f7ff fe90 	bl	8002820 <PN532_SAMConfig>
 8002b00:	ab02      	add	r3, sp, #8
 8002b02:	1cde      	adds	r6, r3, #3
 8002b04:	2300      	movs	r3, #0
 8002b06:	4aa9      	ldr	r2, [pc, #676]	; (8002dac <PN532_InListPassiveTarget+0x2e4>)
 8002b08:	201f      	movs	r0, #31
 8002b0a:	9205      	str	r2, [sp, #20]
 8002b0c:	4aa8      	ldr	r2, [pc, #672]	; (8002db0 <PN532_InListPassiveTarget+0x2e8>)
 8002b0e:	7033      	strb	r3, [r6, #0]
 8002b10:	9206      	str	r2, [sp, #24]
 8002b12:	4642      	mov	r2, r8
 8002b14:	72ab      	strb	r3, [r5, #10]
 8002b16:	23fa      	movs	r3, #250	; 0xfa
 8002b18:	4240      	negs	r0, r0
 8002b1a:	1a80      	subs	r0, r0, r2
 8002b1c:	009b      	lsls	r3, r3, #2
 8002b1e:	0029      	movs	r1, r5
 8002b20:	722a      	strb	r2, [r5, #8]
 8002b22:	7268      	strb	r0, [r5, #9]
 8002b24:	220b      	movs	r2, #11
 8002b26:	0038      	movs	r0, r7
 8002b28:	f7fe fa12 	bl	8000f50 <HAL_UART_Transmit>
 8002b2c:	2064      	movs	r0, #100	; 0x64
 8002b2e:	f7fd fc91 	bl	8000454 <HAL_Delay>
 8002b32:	0030      	movs	r0, r6
 8002b34:	f000 fc16 	bl	8003364 <get_rx_data_len>
 8002b38:	7836      	ldrb	r6, [r6, #0]
 8002b3a:	2e00      	cmp	r6, #0
 8002b3c:	d100      	bne.n	8002b40 <PN532_InListPassiveTarget+0x78>
 8002b3e:	e10d      	b.n	8002d5c <PN532_InListPassiveTarget+0x294>
 8002b40:	23ff      	movs	r3, #255	; 0xff
 8002b42:	041b      	lsls	r3, r3, #16
 8002b44:	9303      	str	r3, [sp, #12]
 8002b46:	23ff      	movs	r3, #255	; 0xff
 8002b48:	4d9a      	ldr	r5, [pc, #616]	; (8002db4 <PN532_InListPassiveTarget+0x2ec>)
 8002b4a:	a803      	add	r0, sp, #12
 8002b4c:	8083      	strh	r3, [r0, #4]
 8002b4e:	2206      	movs	r2, #6
 8002b50:	0029      	movs	r1, r5
 8002b52:	f000 fc97 	bl	8003484 <memcmp>
 8002b56:	2800      	cmp	r0, #0
 8002b58:	d000      	beq.n	8002b5c <PN532_InListPassiveTarget+0x94>
 8002b5a:	e0fd      	b.n	8002d58 <PN532_InListPassiveTarget+0x290>
 8002b5c:	1eb0      	subs	r0, r6, #2
 8002b5e:	280b      	cmp	r0, #11
 8002b60:	dc00      	bgt.n	8002b64 <PN532_InListPassiveTarget+0x9c>
 8002b62:	e115      	b.n	8002d90 <PN532_InListPassiveTarget+0x2c8>
 8002b64:	002b      	movs	r3, r5
 8002b66:	0037      	movs	r7, r6
 8002b68:	2203      	movs	r2, #3
 8002b6a:	330b      	adds	r3, #11
 8002b6c:	425b      	negs	r3, r3
 8002b6e:	3e0e      	subs	r6, #14
 8002b70:	3f0d      	subs	r7, #13
 8002b72:	401a      	ands	r2, r3
 8002b74:	2e08      	cmp	r6, #8
 8002b76:	d800      	bhi.n	8002b7a <PN532_InListPassiveTarget+0xb2>
 8002b78:	e10f      	b.n	8002d9a <PN532_InListPassiveTarget+0x2d2>
 8002b7a:	2a00      	cmp	r2, #0
 8002b7c:	d100      	bne.n	8002b80 <PN532_InListPassiveTarget+0xb8>
 8002b7e:	e0f7      	b.n	8002d70 <PN532_InListPassiveTarget+0x2a8>
 8002b80:	7aeb      	ldrb	r3, [r5, #11]
 8002b82:	4699      	mov	r9, r3
 8002b84:	2a01      	cmp	r2, #1
 8002b86:	d100      	bne.n	8002b8a <PN532_InListPassiveTarget+0xc2>
 8002b88:	e0ff      	b.n	8002d8a <PN532_InListPassiveTarget+0x2c2>
 8002b8a:	7b2b      	ldrb	r3, [r5, #12]
 8002b8c:	444b      	add	r3, r9
 8002b8e:	b2db      	uxtb	r3, r3
 8002b90:	4699      	mov	r9, r3
 8002b92:	2a03      	cmp	r2, #3
 8002b94:	d000      	beq.n	8002b98 <PN532_InListPassiveTarget+0xd0>
 8002b96:	e0fd      	b.n	8002d94 <PN532_InListPassiveTarget+0x2cc>
 8002b98:	7b6b      	ldrb	r3, [r5, #13]
 8002b9a:	444b      	add	r3, r9
 8002b9c:	b2db      	uxtb	r3, r3
 8002b9e:	4699      	mov	r9, r3
 8002ba0:	230e      	movs	r3, #14
 8002ba2:	4698      	mov	r8, r3
 8002ba4:	1abb      	subs	r3, r7, r2
 8002ba6:	320b      	adds	r2, #11
 8002ba8:	18aa      	adds	r2, r5, r2
 8002baa:	9301      	str	r3, [sp, #4]
 8002bac:	089e      	lsrs	r6, r3, #2
 8002bae:	6813      	ldr	r3, [r2, #0]
 8002bb0:	2e01      	cmp	r6, #1
 8002bb2:	d975      	bls.n	8002ca0 <PN532_InListPassiveTarget+0x1d8>
 8002bb4:	4980      	ldr	r1, [pc, #512]	; (8002db8 <PN532_InListPassiveTarget+0x2f0>)
 8002bb6:	6857      	ldr	r7, [r2, #4]
 8002bb8:	400f      	ands	r7, r1
 8002bba:	46ba      	mov	sl, r7
 8002bbc:	001f      	movs	r7, r3
 8002bbe:	400f      	ands	r7, r1
 8002bc0:	46bc      	mov	ip, r7
 8002bc2:	6857      	ldr	r7, [r2, #4]
 8002bc4:	44e2      	add	sl, ip
 8002bc6:	407b      	eors	r3, r7
 8002bc8:	4f7c      	ldr	r7, [pc, #496]	; (8002dbc <PN532_InListPassiveTarget+0x2f4>)
 8002bca:	403b      	ands	r3, r7
 8002bcc:	46bc      	mov	ip, r7
 8002bce:	4657      	mov	r7, sl
 8002bd0:	405f      	eors	r7, r3
 8002bd2:	003b      	movs	r3, r7
 8002bd4:	2e02      	cmp	r6, #2
 8002bd6:	d063      	beq.n	8002ca0 <PN532_InListPassiveTarget+0x1d8>
 8002bd8:	6897      	ldr	r7, [r2, #8]
 8002bda:	400f      	ands	r7, r1
 8002bdc:	46bb      	mov	fp, r7
 8002bde:	001f      	movs	r7, r3
 8002be0:	400f      	ands	r7, r1
 8002be2:	46ba      	mov	sl, r7
 8002be4:	6897      	ldr	r7, [r2, #8]
 8002be6:	44da      	add	sl, fp
 8002be8:	407b      	eors	r3, r7
 8002bea:	4667      	mov	r7, ip
 8002bec:	403b      	ands	r3, r7
 8002bee:	4657      	mov	r7, sl
 8002bf0:	405f      	eors	r7, r3
 8002bf2:	003b      	movs	r3, r7
 8002bf4:	2e03      	cmp	r6, #3
 8002bf6:	d053      	beq.n	8002ca0 <PN532_InListPassiveTarget+0x1d8>
 8002bf8:	400f      	ands	r7, r1
 8002bfa:	46bb      	mov	fp, r7
 8002bfc:	68d7      	ldr	r7, [r2, #12]
 8002bfe:	400f      	ands	r7, r1
 8002c00:	46ba      	mov	sl, r7
 8002c02:	68d7      	ldr	r7, [r2, #12]
 8002c04:	44da      	add	sl, fp
 8002c06:	407b      	eors	r3, r7
 8002c08:	4667      	mov	r7, ip
 8002c0a:	403b      	ands	r3, r7
 8002c0c:	4657      	mov	r7, sl
 8002c0e:	405f      	eors	r7, r3
 8002c10:	003b      	movs	r3, r7
 8002c12:	2e04      	cmp	r6, #4
 8002c14:	d044      	beq.n	8002ca0 <PN532_InListPassiveTarget+0x1d8>
 8002c16:	400f      	ands	r7, r1
 8002c18:	46bb      	mov	fp, r7
 8002c1a:	6917      	ldr	r7, [r2, #16]
 8002c1c:	400f      	ands	r7, r1
 8002c1e:	46ba      	mov	sl, r7
 8002c20:	6917      	ldr	r7, [r2, #16]
 8002c22:	44da      	add	sl, fp
 8002c24:	407b      	eors	r3, r7
 8002c26:	4667      	mov	r7, ip
 8002c28:	403b      	ands	r3, r7
 8002c2a:	4657      	mov	r7, sl
 8002c2c:	405f      	eors	r7, r3
 8002c2e:	003b      	movs	r3, r7
 8002c30:	2e05      	cmp	r6, #5
 8002c32:	d035      	beq.n	8002ca0 <PN532_InListPassiveTarget+0x1d8>
 8002c34:	400f      	ands	r7, r1
 8002c36:	46bb      	mov	fp, r7
 8002c38:	6957      	ldr	r7, [r2, #20]
 8002c3a:	400f      	ands	r7, r1
 8002c3c:	46ba      	mov	sl, r7
 8002c3e:	6957      	ldr	r7, [r2, #20]
 8002c40:	44da      	add	sl, fp
 8002c42:	407b      	eors	r3, r7
 8002c44:	4667      	mov	r7, ip
 8002c46:	403b      	ands	r3, r7
 8002c48:	4657      	mov	r7, sl
 8002c4a:	405f      	eors	r7, r3
 8002c4c:	003b      	movs	r3, r7
 8002c4e:	2e06      	cmp	r6, #6
 8002c50:	d026      	beq.n	8002ca0 <PN532_InListPassiveTarget+0x1d8>
 8002c52:	400f      	ands	r7, r1
 8002c54:	46bb      	mov	fp, r7
 8002c56:	6997      	ldr	r7, [r2, #24]
 8002c58:	400f      	ands	r7, r1
 8002c5a:	46ba      	mov	sl, r7
 8002c5c:	6997      	ldr	r7, [r2, #24]
 8002c5e:	44da      	add	sl, fp
 8002c60:	407b      	eors	r3, r7
 8002c62:	4667      	mov	r7, ip
 8002c64:	403b      	ands	r3, r7
 8002c66:	4657      	mov	r7, sl
 8002c68:	405f      	eors	r7, r3
 8002c6a:	003b      	movs	r3, r7
 8002c6c:	2e07      	cmp	r6, #7
 8002c6e:	d017      	beq.n	8002ca0 <PN532_InListPassiveTarget+0x1d8>
 8002c70:	400f      	ands	r7, r1
 8002c72:	46bb      	mov	fp, r7
 8002c74:	69d7      	ldr	r7, [r2, #28]
 8002c76:	400f      	ands	r7, r1
 8002c78:	46ba      	mov	sl, r7
 8002c7a:	69d7      	ldr	r7, [r2, #28]
 8002c7c:	44da      	add	sl, fp
 8002c7e:	407b      	eors	r3, r7
 8002c80:	4667      	mov	r7, ip
 8002c82:	403b      	ands	r3, r7
 8002c84:	4657      	mov	r7, sl
 8002c86:	405f      	eors	r7, r3
 8002c88:	003b      	movs	r3, r7
 8002c8a:	2e08      	cmp	r6, #8
 8002c8c:	d008      	beq.n	8002ca0 <PN532_InListPassiveTarget+0x1d8>
 8002c8e:	003e      	movs	r6, r7
 8002c90:	6a12      	ldr	r2, [r2, #32]
 8002c92:	400e      	ands	r6, r1
 8002c94:	4053      	eors	r3, r2
 8002c96:	4011      	ands	r1, r2
 8002c98:	4662      	mov	r2, ip
 8002c9a:	1871      	adds	r1, r6, r1
 8002c9c:	4013      	ands	r3, r2
 8002c9e:	404b      	eors	r3, r1
 8002ca0:	041a      	lsls	r2, r3, #16
 8002ca2:	0e12      	lsrs	r2, r2, #24
 8002ca4:	189a      	adds	r2, r3, r2
 8002ca6:	0219      	lsls	r1, r3, #8
 8002ca8:	0e09      	lsrs	r1, r1, #24
 8002caa:	444a      	add	r2, r9
 8002cac:	9e01      	ldr	r6, [sp, #4]
 8002cae:	1852      	adds	r2, r2, r1
 8002cb0:	0e1b      	lsrs	r3, r3, #24
 8002cb2:	18d3      	adds	r3, r2, r3
 8002cb4:	0031      	movs	r1, r6
 8002cb6:	2203      	movs	r2, #3
 8002cb8:	4391      	bics	r1, r2
 8002cba:	4642      	mov	r2, r8
 8002cbc:	b2db      	uxtb	r3, r3
 8002cbe:	188a      	adds	r2, r1, r2
 8002cc0:	428e      	cmp	r6, r1
 8002cc2:	d032      	beq.n	8002d2a <PN532_InListPassiveTarget+0x262>
 8002cc4:	5ca9      	ldrb	r1, [r5, r2]
 8002cc6:	185b      	adds	r3, r3, r1
 8002cc8:	1c51      	adds	r1, r2, #1
 8002cca:	b2db      	uxtb	r3, r3
 8002ccc:	4288      	cmp	r0, r1
 8002cce:	dd2c      	ble.n	8002d2a <PN532_InListPassiveTarget+0x262>
 8002cd0:	5c69      	ldrb	r1, [r5, r1]
 8002cd2:	185b      	adds	r3, r3, r1
 8002cd4:	1c91      	adds	r1, r2, #2
 8002cd6:	b2db      	uxtb	r3, r3
 8002cd8:	4288      	cmp	r0, r1
 8002cda:	dd26      	ble.n	8002d2a <PN532_InListPassiveTarget+0x262>
 8002cdc:	5c69      	ldrb	r1, [r5, r1]
 8002cde:	185b      	adds	r3, r3, r1
 8002ce0:	1cd1      	adds	r1, r2, #3
 8002ce2:	b2db      	uxtb	r3, r3
 8002ce4:	4288      	cmp	r0, r1
 8002ce6:	dd20      	ble.n	8002d2a <PN532_InListPassiveTarget+0x262>
 8002ce8:	5c69      	ldrb	r1, [r5, r1]
 8002cea:	185b      	adds	r3, r3, r1
 8002cec:	1d11      	adds	r1, r2, #4
 8002cee:	b2db      	uxtb	r3, r3
 8002cf0:	4288      	cmp	r0, r1
 8002cf2:	dd1a      	ble.n	8002d2a <PN532_InListPassiveTarget+0x262>
 8002cf4:	5c69      	ldrb	r1, [r5, r1]
 8002cf6:	185b      	adds	r3, r3, r1
 8002cf8:	1d51      	adds	r1, r2, #5
 8002cfa:	b2db      	uxtb	r3, r3
 8002cfc:	4288      	cmp	r0, r1
 8002cfe:	dd14      	ble.n	8002d2a <PN532_InListPassiveTarget+0x262>
 8002d00:	5c69      	ldrb	r1, [r5, r1]
 8002d02:	185b      	adds	r3, r3, r1
 8002d04:	1d91      	adds	r1, r2, #6
 8002d06:	b2db      	uxtb	r3, r3
 8002d08:	4288      	cmp	r0, r1
 8002d0a:	dd0e      	ble.n	8002d2a <PN532_InListPassiveTarget+0x262>
 8002d0c:	5c69      	ldrb	r1, [r5, r1]
 8002d0e:	185b      	adds	r3, r3, r1
 8002d10:	1dd1      	adds	r1, r2, #7
 8002d12:	b2db      	uxtb	r3, r3
 8002d14:	4288      	cmp	r0, r1
 8002d16:	dd08      	ble.n	8002d2a <PN532_InListPassiveTarget+0x262>
 8002d18:	5c69      	ldrb	r1, [r5, r1]
 8002d1a:	3208      	adds	r2, #8
 8002d1c:	185b      	adds	r3, r3, r1
 8002d1e:	b2db      	uxtb	r3, r3
 8002d20:	4290      	cmp	r0, r2
 8002d22:	dd02      	ble.n	8002d2a <PN532_InListPassiveTarget+0x262>
 8002d24:	5caa      	ldrb	r2, [r5, r2]
 8002d26:	189b      	adds	r3, r3, r2
 8002d28:	b2db      	uxtb	r3, r3
 8002d2a:	425b      	negs	r3, r3
 8002d2c:	b2db      	uxtb	r3, r3
 8002d2e:	5c2a      	ldrb	r2, [r5, r0]
 8002d30:	429a      	cmp	r2, r3
 8002d32:	d111      	bne.n	8002d58 <PN532_InListPassiveTarget+0x290>
 8002d34:	7a6b      	ldrb	r3, [r5, #9]
 8002d36:	2b0c      	cmp	r3, #12
 8002d38:	d01f      	beq.n	8002d7a <PN532_InListPassiveTarget+0x2b2>
 8002d3a:	2b0f      	cmp	r3, #15
 8002d3c:	d123      	bne.n	8002d86 <PN532_InListPassiveTarget+0x2be>
 8002d3e:	2307      	movs	r3, #7
 8002d40:	2207      	movs	r2, #7
 8002d42:	7223      	strb	r3, [r4, #8]
 8002d44:	3b05      	subs	r3, #5
 8002d46:	7023      	strb	r3, [r4, #0]
 8002d48:	491d      	ldr	r1, [pc, #116]	; (8002dc0 <PN532_InListPassiveTarget+0x2f8>)
 8002d4a:	1c60      	adds	r0, r4, #1
 8002d4c:	f000 fba9 	bl	80034a2 <memcpy>
 8002d50:	f000 fb0e 	bl	8003370 <clean_uart1_rx_data>
 8002d54:	2001      	movs	r0, #1
 8002d56:	e004      	b.n	8002d62 <PN532_InListPassiveTarget+0x29a>
 8002d58:	f000 fb0a 	bl	8003370 <clean_uart1_rx_data>
 8002d5c:	f000 fb08 	bl	8003370 <clean_uart1_rx_data>
 8002d60:	2000      	movs	r0, #0
 8002d62:	b01f      	add	sp, #124	; 0x7c
 8002d64:	bc3c      	pop	{r2, r3, r4, r5}
 8002d66:	4690      	mov	r8, r2
 8002d68:	4699      	mov	r9, r3
 8002d6a:	46a2      	mov	sl, r4
 8002d6c:	46ab      	mov	fp, r5
 8002d6e:	bdf0      	pop	{r4, r5, r6, r7, pc}
 8002d70:	2300      	movs	r3, #0
 8002d72:	4699      	mov	r9, r3
 8002d74:	330b      	adds	r3, #11
 8002d76:	4698      	mov	r8, r3
 8002d78:	e714      	b.n	8002ba4 <PN532_InListPassiveTarget+0xdc>
 8002d7a:	3b08      	subs	r3, #8
 8002d7c:	7223      	strb	r3, [r4, #8]
 8002d7e:	2300      	movs	r3, #0
 8002d80:	2204      	movs	r2, #4
 8002d82:	7023      	strb	r3, [r4, #0]
 8002d84:	e7e0      	b.n	8002d48 <PN532_InListPassiveTarget+0x280>
 8002d86:	7a22      	ldrb	r2, [r4, #8]
 8002d88:	e7de      	b.n	8002d48 <PN532_InListPassiveTarget+0x280>
 8002d8a:	230c      	movs	r3, #12
 8002d8c:	4698      	mov	r8, r3
 8002d8e:	e709      	b.n	8002ba4 <PN532_InListPassiveTarget+0xdc>
 8002d90:	2300      	movs	r3, #0
 8002d92:	e7cc      	b.n	8002d2e <PN532_InListPassiveTarget+0x266>
 8002d94:	230d      	movs	r3, #13
 8002d96:	4698      	mov	r8, r3
 8002d98:	e704      	b.n	8002ba4 <PN532_InListPassiveTarget+0xdc>
 8002d9a:	2300      	movs	r3, #0
 8002d9c:	220b      	movs	r2, #11
 8002d9e:	e791      	b.n	8002cc4 <PN532_InListPassiveTarget+0x1fc>
 8002da0:	00005555 	.word	0x00005555
 8002da4:	200004cc 	.word	0x200004cc
 8002da8:	0000ffff 	.word	0x0000ffff
 8002dac:	04ff0000 	.word	0x04ff0000
 8002db0:	014ad4fc 	.word	0x014ad4fc
 8002db4:	2000053c 	.word	0x2000053c
 8002db8:	7f7f7f7f 	.word	0x7f7f7f7f
 8002dbc:	80808080 	.word	0x80808080
 8002dc0:	2000054f 	.word	0x2000054f

08002dc4 <PN532_Read_Tag>:
 8002dc4:	7803      	ldrb	r3, [r0, #0]
 8002dc6:	b510      	push	{r4, lr}
 8002dc8:	2b00      	cmp	r3, #0
 8002dca:	d009      	beq.n	8002de0 <PN532_Read_Tag+0x1c>
 8002dcc:	2b02      	cmp	r3, #2
 8002dce:	d105      	bne.n	8002ddc <PN532_Read_Tag+0x18>
 8002dd0:	f7ff f804 	bl	8001ddc <Mifare_Ultralight_Read>
 8002dd4:	3801      	subs	r0, #1
 8002dd6:	4243      	negs	r3, r0
 8002dd8:	4158      	adcs	r0, r3
 8002dda:	e000      	b.n	8002dde <PN532_Read_Tag+0x1a>
 8002ddc:	2000      	movs	r0, #0
 8002dde:	bd10      	pop	{r4, pc}
 8002de0:	f7fe fd42 	bl	8001868 <Mifare_Classic_Read>
 8002de4:	e7f6      	b.n	8002dd4 <PN532_Read_Tag+0x10>
 8002de6:	46c0      	nop			; (mov r8, r8)

08002de8 <PN532_Write_Tag>:
 8002de8:	7803      	ldrb	r3, [r0, #0]
 8002dea:	b510      	push	{r4, lr}
 8002dec:	2b00      	cmp	r3, #0
 8002dee:	d009      	beq.n	8002e04 <PN532_Write_Tag+0x1c>
 8002df0:	2b02      	cmp	r3, #2
 8002df2:	d105      	bne.n	8002e00 <PN532_Write_Tag+0x18>
 8002df4:	f7ff f8cc 	bl	8001f90 <Mifare_Ultralight_Write>
 8002df8:	3801      	subs	r0, #1
 8002dfa:	4243      	negs	r3, r0
 8002dfc:	4158      	adcs	r0, r3
 8002dfe:	e000      	b.n	8002e02 <PN532_Write_Tag+0x1a>
 8002e00:	2000      	movs	r0, #0
 8002e02:	bd10      	pop	{r4, pc}
 8002e04:	f7fe fefc 	bl	8001c00 <Mifare_Classic_Write>
 8002e08:	e7f6      	b.n	8002df8 <PN532_Write_Tag+0x10>
 8002e0a:	46c0      	nop			; (mov r8, r8)

08002e0c <MX_GPIO_Init>:
 8002e0c:	b570      	push	{r4, r5, r6, lr}
 8002e0e:	b088      	sub	sp, #32
 8002e10:	220c      	movs	r2, #12
 8002e12:	2100      	movs	r1, #0
 8002e14:	a805      	add	r0, sp, #20
 8002e16:	f000 fb4d 	bl	80034b4 <memset>
 8002e1a:	2080      	movs	r0, #128	; 0x80
 8002e1c:	4b23      	ldr	r3, [pc, #140]	; (8002eac <MX_GPIO_Init+0xa0>)
 8002e1e:	03c0      	lsls	r0, r0, #15
 8002e20:	6959      	ldr	r1, [r3, #20]
 8002e22:	2403      	movs	r4, #3
 8002e24:	4301      	orrs	r1, r0
 8002e26:	6159      	str	r1, [r3, #20]
 8002e28:	695a      	ldr	r2, [r3, #20]
 8002e2a:	2690      	movs	r6, #144	; 0x90
 8002e2c:	4002      	ands	r2, r0
 8002e2e:	2080      	movs	r0, #128	; 0x80
 8002e30:	9200      	str	r2, [sp, #0]
 8002e32:	9a00      	ldr	r2, [sp, #0]
 8002e34:	6959      	ldr	r1, [r3, #20]
 8002e36:	0280      	lsls	r0, r0, #10
 8002e38:	4301      	orrs	r1, r0
 8002e3a:	6159      	str	r1, [r3, #20]
 8002e3c:	2180      	movs	r1, #128	; 0x80
 8002e3e:	695a      	ldr	r2, [r3, #20]
 8002e40:	02c9      	lsls	r1, r1, #11
 8002e42:	4002      	ands	r2, r0
 8002e44:	9201      	str	r2, [sp, #4]
 8002e46:	9a01      	ldr	r2, [sp, #4]
 8002e48:	695a      	ldr	r2, [r3, #20]
 8002e4a:	4819      	ldr	r0, [pc, #100]	; (8002eb0 <MX_GPIO_Init+0xa4>)
 8002e4c:	430a      	orrs	r2, r1
 8002e4e:	615a      	str	r2, [r3, #20]
 8002e50:	695b      	ldr	r3, [r3, #20]
 8002e52:	2500      	movs	r5, #0
 8002e54:	400b      	ands	r3, r1
 8002e56:	9302      	str	r3, [sp, #8]
 8002e58:	a903      	add	r1, sp, #12
 8002e5a:	9b02      	ldr	r3, [sp, #8]
 8002e5c:	9403      	str	r4, [sp, #12]
 8002e5e:	9404      	str	r4, [sp, #16]
 8002e60:	f7fd fb8a 	bl	8000578 <HAL_GPIO_Init>
 8002e64:	23e3      	movs	r3, #227	; 0xe3
 8002e66:	05f6      	lsls	r6, r6, #23
 8002e68:	a903      	add	r1, sp, #12
 8002e6a:	0030      	movs	r0, r6
 8002e6c:	9303      	str	r3, [sp, #12]
 8002e6e:	9404      	str	r4, [sp, #16]
 8002e70:	9505      	str	r5, [sp, #20]
 8002e72:	f7fd fb81 	bl	8000578 <HAL_GPIO_Init>
 8002e76:	2310      	movs	r3, #16
 8002e78:	9303      	str	r3, [sp, #12]
 8002e7a:	4b0e      	ldr	r3, [pc, #56]	; (8002eb4 <MX_GPIO_Init+0xa8>)
 8002e7c:	a903      	add	r1, sp, #12
 8002e7e:	0030      	movs	r0, r6
 8002e80:	9304      	str	r3, [sp, #16]
 8002e82:	9505      	str	r5, [sp, #20]
 8002e84:	f7fd fb78 	bl	8000578 <HAL_GPIO_Init>
 8002e88:	2302      	movs	r3, #2
 8002e8a:	a903      	add	r1, sp, #12
 8002e8c:	480a      	ldr	r0, [pc, #40]	; (8002eb8 <MX_GPIO_Init+0xac>)
 8002e8e:	9303      	str	r3, [sp, #12]
 8002e90:	9404      	str	r4, [sp, #16]
 8002e92:	9505      	str	r5, [sp, #20]
 8002e94:	f7fd fb70 	bl	8000578 <HAL_GPIO_Init>
 8002e98:	2200      	movs	r2, #0
 8002e9a:	2102      	movs	r1, #2
 8002e9c:	2007      	movs	r0, #7
 8002e9e:	f7fd faeb 	bl	8000478 <HAL_NVIC_SetPriority>
 8002ea2:	2007      	movs	r0, #7
 8002ea4:	f7fd fb14 	bl	80004d0 <HAL_NVIC_EnableIRQ>
 8002ea8:	b008      	add	sp, #32
 8002eaa:	bd70      	pop	{r4, r5, r6, pc}
 8002eac:	40021000 	.word	0x40021000
 8002eb0:	48001400 	.word	0x48001400
 8002eb4:	10210000 	.word	0x10210000
 8002eb8:	48000400 	.word	0x48000400

08002ebc <HAL_GPIO_EXTI_Callback>:
 8002ebc:	b570      	push	{r4, r5, r6, lr}
 8002ebe:	2007      	movs	r0, #7
 8002ec0:	f7fd fb10 	bl	80004e4 <HAL_NVIC_DisableIRQ>
 8002ec4:	4c31      	ldr	r4, [pc, #196]	; (8002f8c <HAL_GPIO_EXTI_Callback+0xd0>)
 8002ec6:	2000      	movs	r0, #0
 8002ec8:	0021      	movs	r1, r4
 8002eca:	f7ff fdfd 	bl	8002ac8 <PN532_InListPassiveTarget>
 8002ece:	2800      	cmp	r0, #0
 8002ed0:	d100      	bne.n	8002ed4 <HAL_GPIO_EXTI_Callback+0x18>
 8002ed2:	bd70      	pop	{r4, r5, r6, pc}
 8002ed4:	4d2e      	ldr	r5, [pc, #184]	; (8002f90 <HAL_GPIO_EXTI_Callback+0xd4>)
 8002ed6:	4e2f      	ldr	r6, [pc, #188]	; (8002f94 <HAL_GPIO_EXTI_Callback+0xd8>)
 8002ed8:	0029      	movs	r1, r5
 8002eda:	6830      	ldr	r0, [r6, #0]
 8002edc:	f7fe fca0 	bl	8001820 <FN_RM01_Get_FileName>
 8002ee0:	0022      	movs	r2, r4
 8002ee2:	0028      	movs	r0, r5
 8002ee4:	320a      	adds	r2, #10
 8002ee6:	2104      	movs	r1, #4
 8002ee8:	f7ff fa3e 	bl	8002368 <NDEF_Record_Create_TextRecord>
 8002eec:	7a63      	ldrb	r3, [r4, #9]
 8002eee:	0020      	movs	r0, r4
 8002ef0:	3301      	adds	r3, #1
 8002ef2:	7263      	strb	r3, [r4, #9]
 8002ef4:	f7ff ff78 	bl	8002de8 <PN532_Write_Tag>
 8002ef8:	2800      	cmp	r0, #0
 8002efa:	d103      	bne.n	8002f04 <HAL_GPIO_EXTI_Callback+0x48>
 8002efc:	2007      	movs	r0, #7
 8002efe:	f7fd fae7 	bl	80004d0 <HAL_NVIC_EnableIRQ>
 8002f02:	e7e6      	b.n	8002ed2 <HAL_GPIO_EXTI_Callback+0x16>
 8002f04:	4824      	ldr	r0, [pc, #144]	; (8002f98 <HAL_GPIO_EXTI_Callback+0xdc>)
 8002f06:	f7fe fbd9 	bl	80016bc <FN_RM01_Play_Sound>
 8002f0a:	4824      	ldr	r0, [pc, #144]	; (8002f9c <HAL_GPIO_EXTI_Callback+0xe0>)
 8002f0c:	f7fd faa2 	bl	8000454 <HAL_Delay>
 8002f10:	0028      	movs	r0, r5
 8002f12:	f7fe fc01 	bl	8001718 <FN_RM01_Record_Sound>
 8002f16:	0020      	movs	r0, r4
 8002f18:	f7ff fa6c 	bl	80023f4 <NFC_Clear_Tag>
 8002f1c:	2090      	movs	r0, #144	; 0x90
 8002f1e:	2110      	movs	r1, #16
 8002f20:	05c0      	lsls	r0, r0, #23
 8002f22:	f7fd fc1b 	bl	800075c <HAL_GPIO_ReadPin>
 8002f26:	2800      	cmp	r0, #0
 8002f28:	d0f8      	beq.n	8002f1c <HAL_GPIO_EXTI_Callback+0x60>
 8002f2a:	f7fe fc27 	bl	800177c <FN_RM01_Stop_Record>
 8002f2e:	0021      	movs	r1, r4
 8002f30:	2000      	movs	r0, #0
 8002f32:	f7ff fdc9 	bl	8002ac8 <PN532_InListPassiveTarget>
 8002f36:	2800      	cmp	r0, #0
 8002f38:	d011      	beq.n	8002f5e <HAL_GPIO_EXTI_Callback+0xa2>
 8002f3a:	0020      	movs	r0, r4
 8002f3c:	f7ff ff42 	bl	8002dc4 <PN532_Read_Tag>
 8002f40:	2800      	cmp	r0, #0
 8002f42:	d008      	beq.n	8002f56 <HAL_GPIO_EXTI_Callback+0x9a>
 8002f44:	0023      	movs	r3, r4
 8002f46:	3321      	adds	r3, #33	; 0x21
 8002f48:	7819      	ldrb	r1, [r3, #0]
 8002f4a:	782a      	ldrb	r2, [r5, #0]
 8002f4c:	4291      	cmp	r1, r2
 8002f4e:	d00a      	beq.n	8002f66 <HAL_GPIO_EXTI_Callback+0xaa>
 8002f50:	0028      	movs	r0, r5
 8002f52:	f7fe fc33 	bl	80017bc <FN_RM01_Remove_Sound>
 8002f56:	0020      	movs	r0, r4
 8002f58:	f7ff fa4c 	bl	80023f4 <NFC_Clear_Tag>
 8002f5c:	e7ce      	b.n	8002efc <HAL_GPIO_EXTI_Callback+0x40>
 8002f5e:	0028      	movs	r0, r5
 8002f60:	f7fe fc2c 	bl	80017bc <FN_RM01_Remove_Sound>
 8002f64:	e7ca      	b.n	8002efc <HAL_GPIO_EXTI_Callback+0x40>
 8002f66:	7859      	ldrb	r1, [r3, #1]
 8002f68:	786a      	ldrb	r2, [r5, #1]
 8002f6a:	4291      	cmp	r1, r2
 8002f6c:	d1f0      	bne.n	8002f50 <HAL_GPIO_EXTI_Callback+0x94>
 8002f6e:	7899      	ldrb	r1, [r3, #2]
 8002f70:	78aa      	ldrb	r2, [r5, #2]
 8002f72:	4291      	cmp	r1, r2
 8002f74:	d1ec      	bne.n	8002f50 <HAL_GPIO_EXTI_Callback+0x94>
 8002f76:	78da      	ldrb	r2, [r3, #3]
 8002f78:	78eb      	ldrb	r3, [r5, #3]
 8002f7a:	429a      	cmp	r2, r3
 8002f7c:	d1e8      	bne.n	8002f50 <HAL_GPIO_EXTI_Callback+0x94>
 8002f7e:	4808      	ldr	r0, [pc, #32]	; (8002fa0 <HAL_GPIO_EXTI_Callback+0xe4>)
 8002f80:	f7fe fb9c 	bl	80016bc <FN_RM01_Play_Sound>
 8002f84:	6833      	ldr	r3, [r6, #0]
 8002f86:	3301      	adds	r3, #1
 8002f88:	6033      	str	r3, [r6, #0]
 8002f8a:	e7e4      	b.n	8002f56 <HAL_GPIO_EXTI_Callback+0x9a>
 8002f8c:	20000034 	.word	0x20000034
 8002f90:	20000490 	.word	0x20000490
 8002f94:	20000030 	.word	0x20000030
 8002f98:	08003514 	.word	0x08003514
 8002f9c:	000002ee 	.word	0x000002ee
 8002fa0:	0800351c 	.word	0x0800351c

08002fa4 <SystemClock_Config>:
 8002fa4:	b530      	push	{r4, r5, lr}
 8002fa6:	b097      	sub	sp, #92	; 0x5c
 8002fa8:	222c      	movs	r2, #44	; 0x2c
 8002faa:	2100      	movs	r1, #0
 8002fac:	a80b      	add	r0, sp, #44	; 0x2c
 8002fae:	f000 fa81 	bl	80034b4 <memset>
 8002fb2:	2210      	movs	r2, #16
 8002fb4:	2100      	movs	r1, #0
 8002fb6:	a801      	add	r0, sp, #4
 8002fb8:	f000 fa7c 	bl	80034b4 <memset>
 8002fbc:	2214      	movs	r2, #20
 8002fbe:	2100      	movs	r1, #0
 8002fc0:	a805      	add	r0, sp, #20
 8002fc2:	f000 fa77 	bl	80034b4 <memset>
 8002fc6:	2310      	movs	r3, #16
 8002fc8:	930e      	str	r3, [sp, #56]	; 0x38
 8002fca:	2380      	movs	r3, #128	; 0x80
 8002fcc:	021b      	lsls	r3, r3, #8
 8002fce:	9313      	str	r3, [sp, #76]	; 0x4c
 8002fd0:	2380      	movs	r3, #128	; 0x80
 8002fd2:	2402      	movs	r4, #2
 8002fd4:	2501      	movs	r5, #1
 8002fd6:	035b      	lsls	r3, r3, #13
 8002fd8:	a80a      	add	r0, sp, #40	; 0x28
 8002fda:	940a      	str	r4, [sp, #40]	; 0x28
 8002fdc:	9412      	str	r4, [sp, #72]	; 0x48
 8002fde:	9314      	str	r3, [sp, #80]	; 0x50
 8002fe0:	950d      	str	r5, [sp, #52]	; 0x34
 8002fe2:	f7fd fbcd 	bl	8000780 <HAL_RCC_OscConfig>
 8002fe6:	2307      	movs	r3, #7
 8002fe8:	9402      	str	r4, [sp, #8]
 8002fea:	2400      	movs	r4, #0
 8002fec:	2101      	movs	r1, #1
 8002fee:	a801      	add	r0, sp, #4
 8002ff0:	9301      	str	r3, [sp, #4]
 8002ff2:	9403      	str	r4, [sp, #12]
 8002ff4:	9404      	str	r4, [sp, #16]
 8002ff6:	f7fd fe07 	bl	8000c08 <HAL_RCC_ClockConfig>
 8002ffa:	a805      	add	r0, sp, #20
 8002ffc:	9505      	str	r5, [sp, #20]
 8002ffe:	9407      	str	r4, [sp, #28]
 8003000:	f7fd ff0e 	bl	8000e20 <HAL_RCCEx_PeriphCLKConfig>
 8003004:	b017      	add	sp, #92	; 0x5c
 8003006:	bd30      	pop	{r4, r5, pc}

08003008 <main>:
 8003008:	b5f8      	push	{r3, r4, r5, r6, r7, lr}
 800300a:	f7fd fa05 	bl	8000418 <HAL_Init>
 800300e:	f7ff ffc9 	bl	8002fa4 <SystemClock_Config>
 8003012:	f7ff fefb 	bl	8002e0c <MX_GPIO_Init>
 8003016:	f000 f8cb 	bl	80031b0 <MX_USART1_UART_Init>
 800301a:	f000 f8e5 	bl	80031e8 <MX_USART2_UART_Init>
 800301e:	2201      	movs	r2, #1
 8003020:	4922      	ldr	r1, [pc, #136]	; (80030ac <main+0xa4>)
 8003022:	4823      	ldr	r0, [pc, #140]	; (80030b0 <main+0xa8>)
 8003024:	f7fe f82c 	bl	8001080 <HAL_UART_Receive_IT>
 8003028:	2201      	movs	r2, #1
 800302a:	4922      	ldr	r1, [pc, #136]	; (80030b4 <main+0xac>)
 800302c:	4822      	ldr	r0, [pc, #136]	; (80030b8 <main+0xb0>)
 800302e:	f7fe f827 	bl	8001080 <HAL_UART_Receive_IT>
 8003032:	4822      	ldr	r0, [pc, #136]	; (80030bc <main+0xb4>)
 8003034:	f7fe fb1a 	bl	800166c <FN_RM01_Get_File_Num>
 8003038:	20fa      	movs	r0, #250	; 0xfa
 800303a:	f7fd fa0b 	bl	8000454 <HAL_Delay>
 800303e:	4820      	ldr	r0, [pc, #128]	; (80030c0 <main+0xb8>)
 8003040:	f7fe fb3c 	bl	80016bc <FN_RM01_Play_Sound>
 8003044:	20fa      	movs	r0, #250	; 0xfa
 8003046:	0040      	lsls	r0, r0, #1
 8003048:	f7fd fa04 	bl	8000454 <HAL_Delay>
 800304c:	4d1d      	ldr	r5, [pc, #116]	; (80030c4 <main+0xbc>)
 800304e:	4c1e      	ldr	r4, [pc, #120]	; (80030c8 <main+0xc0>)
 8003050:	002f      	movs	r7, r5
 8003052:	4e1e      	ldr	r6, [pc, #120]	; (80030cc <main+0xc4>)
 8003054:	3721      	adds	r7, #33	; 0x21
 8003056:	2096      	movs	r0, #150	; 0x96
 8003058:	0040      	lsls	r0, r0, #1
 800305a:	f7fd f9fb 	bl	8000454 <HAL_Delay>
 800305e:	6823      	ldr	r3, [r4, #0]
 8003060:	2b00      	cmp	r3, #0
 8003062:	d1f8      	bne.n	8003056 <main+0x4e>
 8003064:	2007      	movs	r0, #7
 8003066:	f7fd fa3d 	bl	80004e4 <HAL_NVIC_DisableIRQ>
 800306a:	0029      	movs	r1, r5
 800306c:	2000      	movs	r0, #0
 800306e:	f7ff fd2b 	bl	8002ac8 <PN532_InListPassiveTarget>
 8003072:	2800      	cmp	r0, #0
 8003074:	d103      	bne.n	800307e <main+0x76>
 8003076:	2007      	movs	r0, #7
 8003078:	f7fd fa2a 	bl	80004d0 <HAL_NVIC_EnableIRQ>
 800307c:	e7eb      	b.n	8003056 <main+0x4e>
 800307e:	0028      	movs	r0, r5
 8003080:	f7ff fea0 	bl	8002dc4 <PN532_Read_Tag>
 8003084:	2800      	cmp	r0, #0
 8003086:	d108      	bne.n	800309a <main+0x92>
 8003088:	2204      	movs	r2, #4
 800308a:	2100      	movs	r1, #0
 800308c:	0030      	movs	r0, r6
 800308e:	f000 fa11 	bl	80034b4 <memset>
 8003092:	0028      	movs	r0, r5
 8003094:	f7ff f9ae 	bl	80023f4 <NFC_Clear_Tag>
 8003098:	e7ed      	b.n	8003076 <main+0x6e>
 800309a:	2204      	movs	r2, #4
 800309c:	0039      	movs	r1, r7
 800309e:	0030      	movs	r0, r6
 80030a0:	f000 f9ff 	bl	80034a2 <memcpy>
 80030a4:	0030      	movs	r0, r6
 80030a6:	f7fe fb09 	bl	80016bc <FN_RM01_Play_Sound>
 80030aa:	e7ed      	b.n	8003088 <main+0x80>
 80030ac:	20000495 	.word	0x20000495
 80030b0:	200004cc 	.word	0x200004cc
 80030b4:	200004ca 	.word	0x200004ca
 80030b8:	20000570 	.word	0x20000570
 80030bc:	20000030 	.word	0x20000030
 80030c0:	08003524 	.word	0x08003524
 80030c4:	20000034 	.word	0x20000034
 80030c8:	20000020 	.word	0x20000020
 80030cc:	20000490 	.word	0x20000490

080030d0 <Error_Handler>:
 80030d0:	4770      	bx	lr
 80030d2:	46c0      	nop			; (mov r8, r8)

080030d4 <HAL_MspInit>:
 80030d4:	2201      	movs	r2, #1
 80030d6:	4b0a      	ldr	r3, [pc, #40]	; (8003100 <HAL_MspInit+0x2c>)
 80030d8:	b082      	sub	sp, #8
 80030da:	6999      	ldr	r1, [r3, #24]
 80030dc:	4311      	orrs	r1, r2
 80030de:	6199      	str	r1, [r3, #24]
 80030e0:	6999      	ldr	r1, [r3, #24]
 80030e2:	400a      	ands	r2, r1
 80030e4:	2180      	movs	r1, #128	; 0x80
 80030e6:	9200      	str	r2, [sp, #0]
 80030e8:	9a00      	ldr	r2, [sp, #0]
 80030ea:	69da      	ldr	r2, [r3, #28]
 80030ec:	0549      	lsls	r1, r1, #21
 80030ee:	430a      	orrs	r2, r1
 80030f0:	61da      	str	r2, [r3, #28]
 80030f2:	69db      	ldr	r3, [r3, #28]
 80030f4:	400b      	ands	r3, r1
 80030f6:	9301      	str	r3, [sp, #4]
 80030f8:	9b01      	ldr	r3, [sp, #4]
 80030fa:	b002      	add	sp, #8
 80030fc:	4770      	bx	lr
 80030fe:	46c0      	nop			; (mov r8, r8)
 8003100:	40021000 	.word	0x40021000

08003104 <NMI_Handler>:
 8003104:	4770      	bx	lr
 8003106:	46c0      	nop			; (mov r8, r8)

08003108 <HardFault_Handler>:
 8003108:	e7fe      	b.n	8003108 <HardFault_Handler>
 800310a:	46c0      	nop			; (mov r8, r8)

0800310c <SVC_Handler>:
 800310c:	4770      	bx	lr
 800310e:	46c0      	nop			; (mov r8, r8)

08003110 <PendSV_Handler>:
 8003110:	4770      	bx	lr
 8003112:	46c0      	nop			; (mov r8, r8)

08003114 <SysTick_Handler>:
 8003114:	b510      	push	{r4, lr}
 8003116:	f7fd f98f 	bl	8000438 <HAL_IncTick>
 800311a:	bd10      	pop	{r4, pc}

0800311c <EXTI4_15_IRQHandler>:
 800311c:	b510      	push	{r4, lr}
 800311e:	2010      	movs	r0, #16
 8003120:	f7fd fb22 	bl	8000768 <HAL_GPIO_EXTI_IRQHandler>
 8003124:	bd10      	pop	{r4, pc}
 8003126:	46c0      	nop			; (mov r8, r8)

08003128 <USART1_IRQHandler>:
 8003128:	b510      	push	{r4, lr}
 800312a:	4802      	ldr	r0, [pc, #8]	; (8003134 <USART1_IRQHandler+0xc>)
 800312c:	f7fe f81e 	bl	800116c <HAL_UART_IRQHandler>
 8003130:	bd10      	pop	{r4, pc}
 8003132:	46c0      	nop			; (mov r8, r8)
 8003134:	200004cc 	.word	0x200004cc

08003138 <USART2_IRQHandler>:
 8003138:	b510      	push	{r4, lr}
 800313a:	4802      	ldr	r0, [pc, #8]	; (8003144 <USART2_IRQHandler+0xc>)
 800313c:	f7fe f816 	bl	800116c <HAL_UART_IRQHandler>
 8003140:	bd10      	pop	{r4, pc}
 8003142:	46c0      	nop			; (mov r8, r8)
 8003144:	20000570 	.word	0x20000570

08003148 <SystemInit>:
 8003148:	2101      	movs	r1, #1
 800314a:	4b13      	ldr	r3, [pc, #76]	; (8003198 <SystemInit+0x50>)
 800314c:	4813      	ldr	r0, [pc, #76]	; (800319c <SystemInit+0x54>)
 800314e:	681a      	ldr	r2, [r3, #0]
 8003150:	430a      	orrs	r2, r1
 8003152:	601a      	str	r2, [r3, #0]
 8003154:	685a      	ldr	r2, [r3, #4]
 8003156:	4002      	ands	r2, r0
 8003158:	605a      	str	r2, [r3, #4]
 800315a:	681a      	ldr	r2, [r3, #0]
 800315c:	4810      	ldr	r0, [pc, #64]	; (80031a0 <SystemInit+0x58>)
 800315e:	4002      	ands	r2, r0
 8003160:	601a      	str	r2, [r3, #0]
 8003162:	681a      	ldr	r2, [r3, #0]
 8003164:	480f      	ldr	r0, [pc, #60]	; (80031a4 <SystemInit+0x5c>)
 8003166:	4002      	ands	r2, r0
 8003168:	601a      	str	r2, [r3, #0]
 800316a:	685a      	ldr	r2, [r3, #4]
 800316c:	480e      	ldr	r0, [pc, #56]	; (80031a8 <SystemInit+0x60>)
 800316e:	4002      	ands	r2, r0
 8003170:	200f      	movs	r0, #15
 8003172:	605a      	str	r2, [r3, #4]
 8003174:	6ada      	ldr	r2, [r3, #44]	; 0x2c
 8003176:	4382      	bics	r2, r0
 8003178:	62da      	str	r2, [r3, #44]	; 0x2c
 800317a:	6b1a      	ldr	r2, [r3, #48]	; 0x30
 800317c:	480b      	ldr	r0, [pc, #44]	; (80031ac <SystemInit+0x64>)
 800317e:	4002      	ands	r2, r0
 8003180:	2080      	movs	r0, #128	; 0x80
 8003182:	631a      	str	r2, [r3, #48]	; 0x30
 8003184:	6b1a      	ldr	r2, [r3, #48]	; 0x30
 8003186:	4302      	orrs	r2, r0
 8003188:	631a      	str	r2, [r3, #48]	; 0x30
 800318a:	6b5a      	ldr	r2, [r3, #52]	; 0x34
 800318c:	438a      	bics	r2, r1
 800318e:	635a      	str	r2, [r3, #52]	; 0x34
 8003190:	2200      	movs	r2, #0
 8003192:	609a      	str	r2, [r3, #8]
 8003194:	4770      	bx	lr
 8003196:	46c0      	nop			; (mov r8, r8)
 8003198:	40021000 	.word	0x40021000
 800319c:	08ffb80c 	.word	0x08ffb80c
 80031a0:	fef6ffff 	.word	0xfef6ffff
 80031a4:	fffbffff 	.word	0xfffbffff
 80031a8:	ffc0ffff 	.word	0xffc0ffff
 80031ac:	fffffe6c 	.word	0xfffffe6c

080031b0 <MX_USART1_UART_Init>:
 80031b0:	480b      	ldr	r0, [pc, #44]	; (80031e0 <MX_USART1_UART_Init+0x30>)
 80031b2:	4b0c      	ldr	r3, [pc, #48]	; (80031e4 <MX_USART1_UART_Init+0x34>)
 80031b4:	b510      	push	{r4, lr}
 80031b6:	6003      	str	r3, [r0, #0]
 80031b8:	23e1      	movs	r3, #225	; 0xe1
 80031ba:	025b      	lsls	r3, r3, #9
 80031bc:	6043      	str	r3, [r0, #4]
 80031be:	220c      	movs	r2, #12
 80031c0:	2300      	movs	r3, #0
 80031c2:	6142      	str	r2, [r0, #20]
 80031c4:	6083      	str	r3, [r0, #8]
 80031c6:	60c3      	str	r3, [r0, #12]
 80031c8:	6103      	str	r3, [r0, #16]
 80031ca:	6183      	str	r3, [r0, #24]
 80031cc:	61c3      	str	r3, [r0, #28]
 80031ce:	6203      	str	r3, [r0, #32]
 80031d0:	6243      	str	r3, [r0, #36]	; 0x24
 80031d2:	f7fe f96f 	bl	80014b4 <HAL_UART_Init>
 80031d6:	2800      	cmp	r0, #0
 80031d8:	d001      	beq.n	80031de <MX_USART1_UART_Init+0x2e>
 80031da:	f7ff ff79 	bl	80030d0 <Error_Handler>
 80031de:	bd10      	pop	{r4, pc}
 80031e0:	200004cc 	.word	0x200004cc
 80031e4:	40013800 	.word	0x40013800

080031e8 <MX_USART2_UART_Init>:
 80031e8:	480b      	ldr	r0, [pc, #44]	; (8003218 <MX_USART2_UART_Init+0x30>)
 80031ea:	4b0c      	ldr	r3, [pc, #48]	; (800321c <MX_USART2_UART_Init+0x34>)
 80031ec:	b510      	push	{r4, lr}
 80031ee:	6003      	str	r3, [r0, #0]
 80031f0:	2396      	movs	r3, #150	; 0x96
 80031f2:	019b      	lsls	r3, r3, #6
 80031f4:	6043      	str	r3, [r0, #4]
 80031f6:	220c      	movs	r2, #12
 80031f8:	2300      	movs	r3, #0
 80031fa:	6142      	str	r2, [r0, #20]
 80031fc:	6083      	str	r3, [r0, #8]
 80031fe:	60c3      	str	r3, [r0, #12]
 8003200:	6103      	str	r3, [r0, #16]
 8003202:	6183      	str	r3, [r0, #24]
 8003204:	61c3      	str	r3, [r0, #28]
 8003206:	6203      	str	r3, [r0, #32]
 8003208:	6243      	str	r3, [r0, #36]	; 0x24
 800320a:	f7fe f953 	bl	80014b4 <HAL_UART_Init>
 800320e:	2800      	cmp	r0, #0
 8003210:	d001      	beq.n	8003216 <MX_USART2_UART_Init+0x2e>
 8003212:	f7ff ff5d 	bl	80030d0 <Error_Handler>
 8003216:	bd10      	pop	{r4, pc}
 8003218:	20000570 	.word	0x20000570
 800321c:	40004400 	.word	0x40004400

08003220 <HAL_UART_MspInit>:
 8003220:	b510      	push	{r4, lr}
 8003222:	0004      	movs	r4, r0
 8003224:	b08a      	sub	sp, #40	; 0x28
 8003226:	2214      	movs	r2, #20
 8003228:	2100      	movs	r1, #0
 800322a:	a805      	add	r0, sp, #20
 800322c:	f000 f942 	bl	80034b4 <memset>
 8003230:	6823      	ldr	r3, [r4, #0]
 8003232:	4a2c      	ldr	r2, [pc, #176]	; (80032e4 <HAL_UART_MspInit+0xc4>)
 8003234:	4293      	cmp	r3, r2
 8003236:	d02b      	beq.n	8003290 <HAL_UART_MspInit+0x70>
 8003238:	4a2b      	ldr	r2, [pc, #172]	; (80032e8 <HAL_UART_MspInit+0xc8>)
 800323a:	4293      	cmp	r3, r2
 800323c:	d001      	beq.n	8003242 <HAL_UART_MspInit+0x22>
 800323e:	b00a      	add	sp, #40	; 0x28
 8003240:	bd10      	pop	{r4, pc}
 8003242:	2280      	movs	r2, #128	; 0x80
 8003244:	4b29      	ldr	r3, [pc, #164]	; (80032ec <HAL_UART_MspInit+0xcc>)
 8003246:	0292      	lsls	r2, r2, #10
 8003248:	69d9      	ldr	r1, [r3, #28]
 800324a:	2090      	movs	r0, #144	; 0x90
 800324c:	4311      	orrs	r1, r2
 800324e:	61d9      	str	r1, [r3, #28]
 8003250:	69d9      	ldr	r1, [r3, #28]
 8003252:	05c0      	lsls	r0, r0, #23
 8003254:	4011      	ands	r1, r2
 8003256:	9103      	str	r1, [sp, #12]
 8003258:	9903      	ldr	r1, [sp, #12]
 800325a:	6959      	ldr	r1, [r3, #20]
 800325c:	4311      	orrs	r1, r2
 800325e:	6159      	str	r1, [r3, #20]
 8003260:	695b      	ldr	r3, [r3, #20]
 8003262:	a905      	add	r1, sp, #20
 8003264:	401a      	ands	r2, r3
 8003266:	9204      	str	r2, [sp, #16]
 8003268:	9b04      	ldr	r3, [sp, #16]
 800326a:	230c      	movs	r3, #12
 800326c:	9305      	str	r3, [sp, #20]
 800326e:	3b0a      	subs	r3, #10
 8003270:	9306      	str	r3, [sp, #24]
 8003272:	3301      	adds	r3, #1
 8003274:	9308      	str	r3, [sp, #32]
 8003276:	3b02      	subs	r3, #2
 8003278:	9309      	str	r3, [sp, #36]	; 0x24
 800327a:	f7fd f97d 	bl	8000578 <HAL_GPIO_Init>
 800327e:	2200      	movs	r2, #0
 8003280:	2101      	movs	r1, #1
 8003282:	201c      	movs	r0, #28
 8003284:	f7fd f8f8 	bl	8000478 <HAL_NVIC_SetPriority>
 8003288:	201c      	movs	r0, #28
 800328a:	f7fd f921 	bl	80004d0 <HAL_NVIC_EnableIRQ>
 800328e:	e7d6      	b.n	800323e <HAL_UART_MspInit+0x1e>
 8003290:	2080      	movs	r0, #128	; 0x80
 8003292:	4b16      	ldr	r3, [pc, #88]	; (80032ec <HAL_UART_MspInit+0xcc>)
 8003294:	01c0      	lsls	r0, r0, #7
 8003296:	6999      	ldr	r1, [r3, #24]
 8003298:	4301      	orrs	r1, r0
 800329a:	6199      	str	r1, [r3, #24]
 800329c:	2180      	movs	r1, #128	; 0x80
 800329e:	699a      	ldr	r2, [r3, #24]
 80032a0:	0289      	lsls	r1, r1, #10
 80032a2:	4002      	ands	r2, r0
 80032a4:	9201      	str	r2, [sp, #4]
 80032a6:	9a01      	ldr	r2, [sp, #4]
 80032a8:	695a      	ldr	r2, [r3, #20]
 80032aa:	2090      	movs	r0, #144	; 0x90
 80032ac:	430a      	orrs	r2, r1
 80032ae:	615a      	str	r2, [r3, #20]
 80032b0:	695b      	ldr	r3, [r3, #20]
 80032b2:	05c0      	lsls	r0, r0, #23
 80032b4:	400b      	ands	r3, r1
 80032b6:	9302      	str	r3, [sp, #8]
 80032b8:	9b02      	ldr	r3, [sp, #8]
 80032ba:	23c0      	movs	r3, #192	; 0xc0
 80032bc:	00db      	lsls	r3, r3, #3
 80032be:	9305      	str	r3, [sp, #20]
 80032c0:	2302      	movs	r3, #2
 80032c2:	9306      	str	r3, [sp, #24]
 80032c4:	3301      	adds	r3, #1
 80032c6:	9308      	str	r3, [sp, #32]
 80032c8:	a905      	add	r1, sp, #20
 80032ca:	3b02      	subs	r3, #2
 80032cc:	9309      	str	r3, [sp, #36]	; 0x24
 80032ce:	f7fd f953 	bl	8000578 <HAL_GPIO_Init>
 80032d2:	2200      	movs	r2, #0
 80032d4:	2100      	movs	r1, #0
 80032d6:	201b      	movs	r0, #27
 80032d8:	f7fd f8ce 	bl	8000478 <HAL_NVIC_SetPriority>
 80032dc:	201b      	movs	r0, #27
 80032de:	f7fd f8f7 	bl	80004d0 <HAL_NVIC_EnableIRQ>
 80032e2:	e7ac      	b.n	800323e <HAL_UART_MspInit+0x1e>
 80032e4:	40013800 	.word	0x40013800
 80032e8:	40004400 	.word	0x40004400
 80032ec:	40021000 	.word	0x40021000

080032f0 <HAL_UART_RxCpltCallback>:
 80032f0:	6803      	ldr	r3, [r0, #0]
 80032f2:	4a12      	ldr	r2, [pc, #72]	; (800333c <HAL_UART_RxCpltCallback+0x4c>)
 80032f4:	b510      	push	{r4, lr}
 80032f6:	0004      	movs	r4, r0
 80032f8:	4293      	cmp	r3, r2
 80032fa:	d010      	beq.n	800331e <HAL_UART_RxCpltCallback+0x2e>
 80032fc:	4a10      	ldr	r2, [pc, #64]	; (8003340 <HAL_UART_RxCpltCallback+0x50>)
 80032fe:	4293      	cmp	r3, r2
 8003300:	d000      	beq.n	8003304 <HAL_UART_RxCpltCallback+0x14>
 8003302:	bd10      	pop	{r4, pc}
 8003304:	4a0f      	ldr	r2, [pc, #60]	; (8003344 <HAL_UART_RxCpltCallback+0x54>)
 8003306:	7813      	ldrb	r3, [r2, #0]
 8003308:	1c59      	adds	r1, r3, #1
 800330a:	7011      	strb	r1, [r2, #0]
 800330c:	490e      	ldr	r1, [pc, #56]	; (8003348 <HAL_UART_RxCpltCallback+0x58>)
 800330e:	4a0f      	ldr	r2, [pc, #60]	; (800334c <HAL_UART_RxCpltCallback+0x5c>)
 8003310:	7808      	ldrb	r0, [r1, #0]
 8003312:	54d0      	strb	r0, [r2, r3]
 8003314:	2201      	movs	r2, #1
 8003316:	480e      	ldr	r0, [pc, #56]	; (8003350 <HAL_UART_RxCpltCallback+0x60>)
 8003318:	f7fd feb2 	bl	8001080 <HAL_UART_Receive_IT>
 800331c:	e7f1      	b.n	8003302 <HAL_UART_RxCpltCallback+0x12>
 800331e:	4a0d      	ldr	r2, [pc, #52]	; (8003354 <HAL_UART_RxCpltCallback+0x64>)
 8003320:	7813      	ldrb	r3, [r2, #0]
 8003322:	1c59      	adds	r1, r3, #1
 8003324:	7011      	strb	r1, [r2, #0]
 8003326:	490c      	ldr	r1, [pc, #48]	; (8003358 <HAL_UART_RxCpltCallback+0x68>)
 8003328:	4a0c      	ldr	r2, [pc, #48]	; (800335c <HAL_UART_RxCpltCallback+0x6c>)
 800332a:	7808      	ldrb	r0, [r1, #0]
 800332c:	54d0      	strb	r0, [r2, r3]
 800332e:	2201      	movs	r2, #1
 8003330:	480b      	ldr	r0, [pc, #44]	; (8003360 <HAL_UART_RxCpltCallback+0x70>)
 8003332:	f7fd fea5 	bl	8001080 <HAL_UART_Receive_IT>
 8003336:	6823      	ldr	r3, [r4, #0]
 8003338:	e7e0      	b.n	80032fc <HAL_UART_RxCpltCallback+0xc>
 800333a:	46c0      	nop			; (mov r8, r8)
 800333c:	40013800 	.word	0x40013800
 8003340:	40004400 	.word	0x40004400
 8003344:	20000494 	.word	0x20000494
 8003348:	200004ca 	.word	0x200004ca
 800334c:	20000498 	.word	0x20000498
 8003350:	20000570 	.word	0x20000570
 8003354:	200005e0 	.word	0x200005e0
 8003358:	20000495 	.word	0x20000495
 800335c:	2000053c 	.word	0x2000053c
 8003360:	200004cc 	.word	0x200004cc

08003364 <get_rx_data_len>:
 8003364:	4b01      	ldr	r3, [pc, #4]	; (800336c <get_rx_data_len+0x8>)
 8003366:	781b      	ldrb	r3, [r3, #0]
 8003368:	7003      	strb	r3, [r0, #0]
 800336a:	4770      	bx	lr
 800336c:	200005e0 	.word	0x200005e0

08003370 <clean_uart1_rx_data>:
 8003370:	2100      	movs	r1, #0
 8003372:	b510      	push	{r4, lr}
 8003374:	4b05      	ldr	r3, [pc, #20]	; (800338c <clean_uart1_rx_data+0x1c>)
 8003376:	781a      	ldrb	r2, [r3, #0]
 8003378:	7019      	strb	r1, [r3, #0]
 800337a:	2a00      	cmp	r2, #0
 800337c:	d005      	beq.n	800338a <clean_uart1_rx_data+0x1a>
 800337e:	3a01      	subs	r2, #1
 8003380:	b2d2      	uxtb	r2, r2
 8003382:	3201      	adds	r2, #1
 8003384:	4802      	ldr	r0, [pc, #8]	; (8003390 <clean_uart1_rx_data+0x20>)
 8003386:	f000 f895 	bl	80034b4 <memset>
 800338a:	bd10      	pop	{r4, pc}
 800338c:	200005e0 	.word	0x200005e0
 8003390:	2000053c 	.word	0x2000053c

08003394 <clean_uart2_rx_data>:
 8003394:	2100      	movs	r1, #0
 8003396:	b510      	push	{r4, lr}
 8003398:	4b05      	ldr	r3, [pc, #20]	; (80033b0 <clean_uart2_rx_data+0x1c>)
 800339a:	781a      	ldrb	r2, [r3, #0]
 800339c:	7019      	strb	r1, [r3, #0]
 800339e:	2a00      	cmp	r2, #0
 80033a0:	d005      	beq.n	80033ae <clean_uart2_rx_data+0x1a>
 80033a2:	3a01      	subs	r2, #1
 80033a4:	b2d2      	uxtb	r2, r2
 80033a6:	3201      	adds	r2, #1
 80033a8:	4802      	ldr	r0, [pc, #8]	; (80033b4 <clean_uart2_rx_data+0x20>)
 80033aa:	f000 f883 	bl	80034b4 <memset>
 80033ae:	bd10      	pop	{r4, pc}
 80033b0:	20000494 	.word	0x20000494
 80033b4:	20000498 	.word	0x20000498

080033b8 <Reset_Handler>:
 80033b8:	4813      	ldr	r0, [pc, #76]	; (8003408 <LoopForever+0x2>)
 80033ba:	4685      	mov	sp, r0
 80033bc:	4813      	ldr	r0, [pc, #76]	; (800340c <LoopForever+0x6>)
 80033be:	6801      	ldr	r1, [r0, #0]
 80033c0:	0e09      	lsrs	r1, r1, #24
 80033c2:	4a13      	ldr	r2, [pc, #76]	; (8003410 <LoopForever+0xa>)
 80033c4:	4291      	cmp	r1, r2
 80033c6:	d105      	bne.n	80033d4 <ApplicationStart>
 80033c8:	4812      	ldr	r0, [pc, #72]	; (8003414 <LoopForever+0xe>)
 80033ca:	4913      	ldr	r1, [pc, #76]	; (8003418 <LoopForever+0x12>)
 80033cc:	6001      	str	r1, [r0, #0]
 80033ce:	4813      	ldr	r0, [pc, #76]	; (800341c <LoopForever+0x16>)
 80033d0:	4913      	ldr	r1, [pc, #76]	; (8003420 <LoopForever+0x1a>)
 80033d2:	6001      	str	r1, [r0, #0]

080033d4 <ApplicationStart>:
 80033d4:	4813      	ldr	r0, [pc, #76]	; (8003424 <LoopForever+0x1e>)
 80033d6:	4914      	ldr	r1, [pc, #80]	; (8003428 <LoopForever+0x22>)
 80033d8:	4a14      	ldr	r2, [pc, #80]	; (800342c <LoopForever+0x26>)
 80033da:	2300      	movs	r3, #0
 80033dc:	e002      	b.n	80033e4 <LoopCopyDataInit>

080033de <CopyDataInit>:
 80033de:	58d4      	ldr	r4, [r2, r3]
 80033e0:	50c4      	str	r4, [r0, r3]
 80033e2:	3304      	adds	r3, #4

080033e4 <LoopCopyDataInit>:
 80033e4:	18c4      	adds	r4, r0, r3
 80033e6:	428c      	cmp	r4, r1
 80033e8:	d3f9      	bcc.n	80033de <CopyDataInit>
 80033ea:	4a11      	ldr	r2, [pc, #68]	; (8003430 <LoopForever+0x2a>)
 80033ec:	4c11      	ldr	r4, [pc, #68]	; (8003434 <LoopForever+0x2e>)
 80033ee:	2300      	movs	r3, #0
 80033f0:	e001      	b.n	80033f6 <LoopFillZerobss>

080033f2 <FillZerobss>:
 80033f2:	6013      	str	r3, [r2, #0]
 80033f4:	3204      	adds	r2, #4

080033f6 <LoopFillZerobss>:
 80033f6:	42a2      	cmp	r2, r4
 80033f8:	d3fb      	bcc.n	80033f2 <FillZerobss>
 80033fa:	f7ff fea5 	bl	8003148 <SystemInit>
 80033fe:	f000 f81d 	bl	800343c <__libc_init_array>
 8003402:	f7ff fe01 	bl	8003008 <main>

08003406 <LoopForever>:
 8003406:	e7fe      	b.n	8003406 <LoopForever>
 8003408:	20001800 	.word	0x20001800
 800340c:	00000004 	.word	0x00000004
 8003410:	0000001f 	.word	0x0000001f
 8003414:	40021018 	.word	0x40021018
 8003418:	00000001 	.word	0x00000001
 800341c:	40010000 	.word	0x40010000
 8003420:	00000000 	.word	0x00000000
 8003424:	20000000 	.word	0x20000000
 8003428:	20000004 	.word	0x20000004
 800342c:	0800354c 	.word	0x0800354c
 8003430:	20000004 	.word	0x20000004
 8003434:	200005e4 	.word	0x200005e4

08003438 <ADC1_IRQHandler>:
 8003438:	e7fe      	b.n	8003438 <ADC1_IRQHandler>
	...

0800343c <__libc_init_array>:
 800343c:	b570      	push	{r4, r5, r6, lr}
 800343e:	2600      	movs	r6, #0
 8003440:	4d0c      	ldr	r5, [pc, #48]	; (8003474 <__libc_init_array+0x38>)
 8003442:	4c0d      	ldr	r4, [pc, #52]	; (8003478 <__libc_init_array+0x3c>)
 8003444:	1b64      	subs	r4, r4, r5
 8003446:	10a4      	asrs	r4, r4, #2
 8003448:	42a6      	cmp	r6, r4
 800344a:	d109      	bne.n	8003460 <__libc_init_array+0x24>
 800344c:	2600      	movs	r6, #0
 800344e:	f000 f839 	bl	80034c4 <_init>
 8003452:	4d0a      	ldr	r5, [pc, #40]	; (800347c <__libc_init_array+0x40>)
 8003454:	4c0a      	ldr	r4, [pc, #40]	; (8003480 <__libc_init_array+0x44>)
 8003456:	1b64      	subs	r4, r4, r5
 8003458:	10a4      	asrs	r4, r4, #2
 800345a:	42a6      	cmp	r6, r4
 800345c:	d105      	bne.n	800346a <__libc_init_array+0x2e>
 800345e:	bd70      	pop	{r4, r5, r6, pc}
 8003460:	00b3      	lsls	r3, r6, #2
 8003462:	58eb      	ldr	r3, [r5, r3]
 8003464:	4798      	blx	r3
 8003466:	3601      	adds	r6, #1
 8003468:	e7ee      	b.n	8003448 <__libc_init_array+0xc>
 800346a:	00b3      	lsls	r3, r6, #2
 800346c:	58eb      	ldr	r3, [r5, r3]
 800346e:	4798      	blx	r3
 8003470:	3601      	adds	r6, #1
 8003472:	e7f2      	b.n	800345a <__libc_init_array+0x1e>
 8003474:	08003544 	.word	0x08003544
 8003478:	08003544 	.word	0x08003544
 800347c:	08003544 	.word	0x08003544
 8003480:	08003548 	.word	0x08003548

08003484 <memcmp>:
 8003484:	b530      	push	{r4, r5, lr}
 8003486:	2400      	movs	r4, #0
 8003488:	42a2      	cmp	r2, r4
 800348a:	d101      	bne.n	8003490 <memcmp+0xc>
 800348c:	2000      	movs	r0, #0
 800348e:	e005      	b.n	800349c <memcmp+0x18>
 8003490:	5d03      	ldrb	r3, [r0, r4]
 8003492:	1c65      	adds	r5, r4, #1
 8003494:	5d0c      	ldrb	r4, [r1, r4]
 8003496:	42a3      	cmp	r3, r4
 8003498:	d001      	beq.n	800349e <memcmp+0x1a>
 800349a:	1b18      	subs	r0, r3, r4
 800349c:	bd30      	pop	{r4, r5, pc}
 800349e:	002c      	movs	r4, r5
 80034a0:	e7f2      	b.n	8003488 <memcmp+0x4>

080034a2 <memcpy>:
 80034a2:	2300      	movs	r3, #0
 80034a4:	b510      	push	{r4, lr}
 80034a6:	429a      	cmp	r2, r3
 80034a8:	d100      	bne.n	80034ac <memcpy+0xa>
 80034aa:	bd10      	pop	{r4, pc}
 80034ac:	5ccc      	ldrb	r4, [r1, r3]
 80034ae:	54c4      	strb	r4, [r0, r3]
 80034b0:	3301      	adds	r3, #1
 80034b2:	e7f8      	b.n	80034a6 <memcpy+0x4>

080034b4 <memset>:
 80034b4:	0003      	movs	r3, r0
 80034b6:	1812      	adds	r2, r2, r0
 80034b8:	4293      	cmp	r3, r2
 80034ba:	d100      	bne.n	80034be <memset+0xa>
 80034bc:	4770      	bx	lr
 80034be:	7019      	strb	r1, [r3, #0]
 80034c0:	3301      	adds	r3, #1
 80034c2:	e7f9      	b.n	80034b8 <memset+0x4>

080034c4 <_init>:
 80034c4:	b5f8      	push	{r3, r4, r5, r6, r7, lr}
 80034c6:	46c0      	nop			; (mov r8, r8)
 80034c8:	bcf8      	pop	{r3, r4, r5, r6, r7}
 80034ca:	bc08      	pop	{r3}
 80034cc:	469e      	mov	lr, r3
 80034ce:	4770      	bx	lr

080034d0 <_fini>:
 80034d0:	b5f8      	push	{r3, r4, r5, r6, r7, lr}
 80034d2:	46c0      	nop			; (mov r8, r8)
 80034d4:	bcf8      	pop	{r3, r4, r5, r6, r7}
 80034d6:	bc08      	pop	{r3}
 80034d8:	469e      	mov	lr, r3
 80034da:	4770      	bx	lr
